	.file	"full.llvm"
	.text
.Ltext_begin:
	.data
	.file	1 "feature_extraction.c"
	.file	2 "kiss_fft.c"
	.file	3 "./_kiss_fft_guts.h"
	.file	4 "./kiss_fft.h"
	.file	5 "eispack.c"
	.text
	.globl	test_stores
	.align	16, 0x90
	.type	test_stores,@function
test_stores:                            # @test_stores
	.cfi_startproc
.Lfunc_begin0:
	.loc	1 15 0                  # feature_extraction.c:15:0
# BB#0:
	pushq	%rbp
.Ltmp7:
	.cfi_def_cfa_offset 16
	pushq	%r15
.Ltmp8:
	.cfi_def_cfa_offset 24
	pushq	%r14
.Ltmp9:
	.cfi_def_cfa_offset 32
	pushq	%r13
.Ltmp10:
	.cfi_def_cfa_offset 40
	pushq	%r12
.Ltmp11:
	.cfi_def_cfa_offset 48
	pushq	%rbx
.Ltmp12:
	.cfi_def_cfa_offset 56
	subq	$1944, %rsp             # imm = 0x798
.Ltmp13:
	.cfi_def_cfa_offset 2000
.Ltmp14:
	.cfi_offset %rbx, -56
.Ltmp15:
	.cfi_offset %r12, -48
.Ltmp16:
	.cfi_offset %r13, -40
.Ltmp17:
	.cfi_offset %r14, -32
.Ltmp18:
	.cfi_offset %r15, -24
.Ltmp19:
	.cfi_offset %rbp, -16
	movabsq	$1, %rax
	leaq	.L.str6, %r8
	movabsq	$0, %r9
	leaq	.L.str8, %r10
	movabsq	$2, %r11
	leaq	.L.str12, %rbx
	movabsq	$3, %r14
	leaq	.L.str11, %r15
	movabsq	$16, %r12
	leaq	.L.str4, %r13
	leaq	.L.str5, %rbp
	movq	%rax, 1936(%rsp)        # 8-byte Spill
	leaq	.L.str10, %rax
	movl	%ecx, 1932(%rsp)        # 4-byte Spill
	movl	$0, %ecx
	movl	%ecx, 1928(%rsp)        # 4-byte Spill
	movl	$1, %ecx
	movq	%rax, 1920(%rsp)        # 8-byte Spill
	movabsq	$19134, %rax            # imm = 0x4ABE
	movq	%rax, 1912(%rsp)        # 8-byte Spill
	movabsq	$32, %rax
	movq	%rax, 1904(%rsp)        # 8-byte Spill
	leaq	.L.str9, %rax
	movq	%rax, 1896(%rsp)        # 8-byte Spill
	leaq	.L.str7, %rax
	movq	%rax, 1888(%rsp)        # 8-byte Spill
	movabsq	$46, %rax
	movq	%rax, 1880(%rsp)        # 8-byte Spill
	movabsq	$24601, %rax            # imm = 0x6019
	movq	%rax, 1872(%rsp)        # 8-byte Spill
	leaq	.L.str14, %rax
	movq	%rax, 1864(%rsp)        # 8-byte Spill
	movabsq	$64, %rax
	movq	%rax, 1856(%rsp)        # 8-byte Spill
	leaq	.L.str35, %rax
	movq	%rax, 1848(%rsp)        # 8-byte Spill
	leaq	.L.str49, %rax
	.loc	1 15 0 prologue_end     # feature_extraction.c:15:0
.Ltmp20:
	movq	%rax, 1840(%rsp)        # 8-byte Spill
	movq	1872(%rsp), %rax        # 8-byte Reload
	movq	%rdi, 1832(%rsp)        # 8-byte Spill
	movq	%rax, %rdi
	movq	1856(%rsp), %rax        # 8-byte Reload
	movq	%rsi, 1824(%rsp)        # 8-byte Spill
	movq	%rax, %rsi
	movq	1832(%rsp), %rax        # 8-byte Reload
	movl	%edx, 1820(%rsp)        # 4-byte Spill
	movq	%rax, %rdx
	movq	1936(%rsp), %rax        # 8-byte Reload
	movl	%ecx, 1816(%rsp)        # 4-byte Spill
	movq	%rax, %rcx
	movq	1840(%rsp), %rax        # 8-byte Reload
	movq	%r8, 1808(%rsp)         # 8-byte Spill
	movq	%rax, %r8
	movq	%r9, 1800(%rsp)         # 8-byte Spill
	movq	%r10, (%rsp)
	movq	%r12, 1792(%rsp)        # 8-byte Spill
	movq	%r13, 1784(%rsp)        # 8-byte Spill
	movq	%rbp, 1776(%rsp)        # 8-byte Spill
	movq	%r15, 1768(%rsp)        # 8-byte Spill
	movq	%r14, 1760(%rsp)        # 8-byte Spill
	movq	%rbx, 1752(%rsp)        # 8-byte Spill
	movq	%r10, 1744(%rsp)        # 8-byte Spill
	movq	%r11, 1736(%rsp)        # 8-byte Spill
	callq	trace_logger_log_ptr
	movq	1872(%rsp), %rdi        # 8-byte Reload
	movq	1856(%rsp), %rsi        # 8-byte Reload
	movq	1824(%rsp), %rdx        # 8-byte Reload
	movq	1936(%rsp), %rcx        # 8-byte Reload
	movq	1848(%rsp), %r8         # 8-byte Reload
	movq	1800(%rsp), %r9         # 8-byte Reload
	movq	1744(%rsp), %rax        # 8-byte Reload
	movq	%rax, (%rsp)
	callq	trace_logger_log_ptr
	movl	1820(%rsp), %esi        # 4-byte Reload
	movl	%esi, %esi
	movl	%esi, %edx
	movq	1872(%rsp), %rdi        # 8-byte Reload
	movq	1904(%rsp), %rsi        # 8-byte Reload
	movq	1936(%rsp), %rcx        # 8-byte Reload
	movq	1864(%rsp), %r8         # 8-byte Reload
	movq	1800(%rsp), %r9         # 8-byte Reload
	movq	1744(%rsp), %rax        # 8-byte Reload
	movq	%rax, (%rsp)
	callq	trace_logger_log_int
	movl	1932(%rsp), %esi        # 4-byte Reload
	movl	%esi, %esi
	movl	%esi, %edx
	movq	1872(%rsp), %rdi        # 8-byte Reload
	movq	1904(%rsp), %rsi        # 8-byte Reload
	movq	1936(%rsp), %rcx        # 8-byte Reload
	movq	1896(%rsp), %r8         # 8-byte Reload
	movq	1800(%rsp), %r9         # 8-byte Reload
	movq	1744(%rsp), %rax        # 8-byte Reload
	movq	%rax, (%rsp)
	callq	trace_logger_log_int
	#DEBUG_VALUE: test_stores:time_data <- [RSP+1832]
	#DEBUG_VALUE: test_stores:freq_data <- [RSP+1824]
	#DEBUG_VALUE: test_stores:n_samples <- [RSP+1820]
	#DEBUG_VALUE: test_stores:n_channels <- [RSP+1932]
.Ltmp21:
	#DEBUG_VALUE: j <- 0
	.loc	1 16 0                  # feature_extraction.c:16:0
	movq	1792(%rsp), %rdi        # 8-byte Reload
	movq	1784(%rsp), %rsi        # 8-byte Reload
	movq	1776(%rsp), %rdx        # 8-byte Reload
	movq	1808(%rsp), %rcx        # 8-byte Reload
	movq	1880(%rsp), %r8         # 8-byte Reload
	movl	1928(%rsp), %r9d        # 4-byte Reload
	movl	$1, (%rsp)
	callq	trace_logger_log0
	movq	1736(%rsp), %rdi        # 8-byte Reload
	movq	1904(%rsp), %rsi        # 8-byte Reload
	movq	1800(%rsp), %rdx        # 8-byte Reload
	movq	1800(%rsp), %rcx        # 8-byte Reload
	movq	1888(%rsp), %r8         # 8-byte Reload
	movq	1800(%rsp), %r9         # 8-byte Reload
	movq	1744(%rsp), %rax        # 8-byte Reload
	movq	%rax, (%rsp)
	callq	trace_logger_log_int
	movl	1932(%rsp), %esi        # 4-byte Reload
	movl	%esi, %esi
	movl	%esi, %edx
	movq	1936(%rsp), %rdi        # 8-byte Reload
	movq	1904(%rsp), %rsi        # 8-byte Reload
	movq	1936(%rsp), %rcx        # 8-byte Reload
	movq	1896(%rsp), %r8         # 8-byte Reload
	movq	1800(%rsp), %r9         # 8-byte Reload
	movq	1744(%rsp), %rax        # 8-byte Reload
	movq	%rax, (%rsp)
	callq	trace_logger_log_int
	movl	1932(%rsp), %esi        # 4-byte Reload
	cmpl	$0, %esi
	setg	%al
	movb	%al, %cl
	andb	$1, %cl
	movzbl	%cl, %ecx
	movl	%ecx, %edx
	movq	1912(%rsp), %rdi        # 8-byte Reload
	movq	1936(%rsp), %rsi        # 8-byte Reload
	movq	1936(%rsp), %rcx        # 8-byte Reload
	movq	1808(%rsp), %r8         # 8-byte Reload
	movq	1800(%rsp), %r9         # 8-byte Reload
	movq	1744(%rsp), %r10        # 8-byte Reload
	movq	%r10, (%rsp)
	movb	%al, 1735(%rsp)         # 1-byte Spill
	callq	trace_logger_log_int
	movq	1792(%rsp), %rdi        # 8-byte Reload
	movq	1784(%rsp), %rsi        # 8-byte Reload
	movq	1776(%rsp), %rdx        # 8-byte Reload
	movq	1920(%rsp), %rcx        # 8-byte Reload
	movq	1736(%rsp), %r8         # 8-byte Reload
	movl	1928(%rsp), %r9d        # 4-byte Reload
	movl	$1, (%rsp)
	callq	trace_logger_log0
	movq	1760(%rsp), %rdi        # 8-byte Reload
	movq	1800(%rsp), %rsi        # 8-byte Reload
	movq	1800(%rsp), %rdx        # 8-byte Reload
	movq	1936(%rsp), %rcx        # 8-byte Reload
	movq	1768(%rsp), %r8         # 8-byte Reload
	movq	1800(%rsp), %r9         # 8-byte Reload
	movq	1744(%rsp), %r10        # 8-byte Reload
	movq	%r10, (%rsp)
	callq	trace_logger_log_int
	movq	1736(%rsp), %rdi        # 8-byte Reload
	movq	1800(%rsp), %rsi        # 8-byte Reload
	movq	1800(%rsp), %rdx        # 8-byte Reload
	movq	1936(%rsp), %rcx        # 8-byte Reload
	movq	1752(%rsp), %r8         # 8-byte Reload
	movq	1800(%rsp), %r9         # 8-byte Reload
	movq	1744(%rsp), %r10        # 8-byte Reload
	movq	%r10, (%rsp)
	callq	trace_logger_log_int
	movb	1735(%rsp), %al         # 1-byte Reload
	andb	$1, %al
	movzbl	%al, %eax
	movl	%eax, %edx
	movq	1936(%rsp), %rdi        # 8-byte Reload
	movq	1936(%rsp), %rsi        # 8-byte Reload
	movq	1936(%rsp), %rcx        # 8-byte Reload
	movq	1808(%rsp), %r8         # 8-byte Reload
	movq	1800(%rsp), %r9         # 8-byte Reload
	movq	1744(%rsp), %r10        # 8-byte Reload
	movq	%r10, (%rsp)
	callq	trace_logger_log_int
	movb	1735(%rsp), %al         # 1-byte Reload
	testb	$1, %al
	jne	.LBB0_1
	jmp	.LBB0_6
.Ltmp22:
.LBB0_1:                                # %.preheader.lr.ph
	movabsq	$0, %rax
	movabsq	$1, %rcx
	leaq	.L.str16, %r8
	leaq	.L.str8, %rdx
	movabsq	$16, %rdi
	leaq	.L.str4, %rsi
	leaq	.L.str11, %r9
	leaq	.L.str15, %r10
	movabsq	$2, %r11
	movl	$0, %ebx
	movl	$1, %ebp
	movabsq	$19134, %r14            # imm = 0x4ABE
	leaq	.L.str13, %r15
	movabsq	$32, %r12
	leaq	.L.str14, %r13
	movq	%rax, 1720(%rsp)        # 8-byte Spill
	leaq	.L.str7, %rax
	movq	%rax, 1712(%rsp)        # 8-byte Spill
	movabsq	$18, %rax
	movq	%rax, 1704(%rsp)        # 8-byte Spill
	movabsq	$46, %rax
	.loc	1 18 0                  # feature_extraction.c:18:0
.Ltmp23:
	movq	%rax, 1696(%rsp)        # 8-byte Spill
	movq	1704(%rsp), %rax        # 8-byte Reload
	movq	%rdi, 1688(%rsp)        # 8-byte Spill
	movq	%rax, %rdi
	movq	%rsi, 1680(%rsp)        # 8-byte Spill
	movq	%rdx, 1672(%rsp)        # 8-byte Spill
	movq	%r9, %rdx
	movq	%rcx, 1664(%rsp)        # 8-byte Spill
	movq	%r15, %rcx
	movq	1696(%rsp), %rax        # 8-byte Reload
	movq	%r8, 1656(%rsp)         # 8-byte Spill
	movq	%rax, %r8
	movq	%r9, 1648(%rsp)         # 8-byte Spill
	movl	%ebx, %r9d
	movl	$1, (%rsp)
	movq	%r14, 1640(%rsp)        # 8-byte Spill
	movl	%ebp, 1636(%rsp)        # 4-byte Spill
	movq	%r15, 1624(%rsp)        # 8-byte Spill
	movq	%r13, 1616(%rsp)        # 8-byte Spill
	movq	%r12, 1608(%rsp)        # 8-byte Spill
	movl	%ebx, 1604(%rsp)        # 4-byte Spill
	movq	%r10, 1592(%rsp)        # 8-byte Spill
	movq	%r11, 1584(%rsp)        # 8-byte Spill
	callq	trace_logger_log0
	movq	1584(%rsp), %rdi        # 8-byte Reload
	movq	1608(%rsp), %rsi        # 8-byte Reload
	movq	1720(%rsp), %rdx        # 8-byte Reload
	movq	1720(%rsp), %rcx        # 8-byte Reload
	movq	1712(%rsp), %r8         # 8-byte Reload
	movq	1720(%rsp), %r9         # 8-byte Reload
	movq	1672(%rsp), %rax        # 8-byte Reload
	movq	%rax, (%rsp)
	callq	trace_logger_log_int
	movl	1820(%rsp), %ebx        # 4-byte Reload
	movl	%ebx, %ebp
	movl	%ebp, %edx
	movq	1664(%rsp), %rdi        # 8-byte Reload
	movq	1608(%rsp), %rsi        # 8-byte Reload
	movq	1664(%rsp), %rcx        # 8-byte Reload
	movq	1616(%rsp), %r8         # 8-byte Reload
	movq	1720(%rsp), %r9         # 8-byte Reload
	movq	1672(%rsp), %rax        # 8-byte Reload
	movq	%rax, (%rsp)
	callq	trace_logger_log_int
	movl	1820(%rsp), %ebx        # 4-byte Reload
	cmpl	$0, %ebx
	setg	%al
.Ltmp24:
	.loc	1 16 0                  # feature_extraction.c:16:0
	movb	%al, %cl
	andb	$1, %cl
	movzbl	%cl, %ebp
	movl	%ebp, %edx
	movq	1640(%rsp), %rdi        # 8-byte Reload
	movq	1664(%rsp), %rsi        # 8-byte Reload
	movq	1664(%rsp), %rcx        # 8-byte Reload
	movq	1624(%rsp), %r8         # 8-byte Reload
	movq	1720(%rsp), %r9         # 8-byte Reload
	movq	1672(%rsp), %r10        # 8-byte Reload
	movq	%r10, (%rsp)
	movb	%al, 1583(%rsp)         # 1-byte Spill
	callq	trace_logger_log_int
	movq	1688(%rsp), %rdi        # 8-byte Reload
	movq	1680(%rsp), %rsi        # 8-byte Reload
	movq	1648(%rsp), %rdx        # 8-byte Reload
	movq	1592(%rsp), %rcx        # 8-byte Reload
	movq	1584(%rsp), %r8         # 8-byte Reload
	movl	1604(%rsp), %r9d        # 4-byte Reload
	movl	$1, (%rsp)
	callq	trace_logger_log0
	movq	1664(%rsp), %rdi        # 8-byte Reload
	movq	1720(%rsp), %rsi        # 8-byte Reload
	movq	1720(%rsp), %rdx        # 8-byte Reload
	movq	1664(%rsp), %rcx        # 8-byte Reload
	movq	1656(%rsp), %r8         # 8-byte Reload
	movq	1720(%rsp), %r9         # 8-byte Reload
	movq	1672(%rsp), %r10        # 8-byte Reload
	movq	%r10, (%rsp)
	callq	trace_logger_log_int
	movq	1720(%rsp), %rcx        # 8-byte Reload
	movq	%rcx, 1568(%rsp)        # 8-byte Spill
.LBB0_2:                                # %.preheader
                                        # =>This Loop Header: Depth=1
                                        #     Child Loop BB0_4 Depth 2
	movq	1568(%rsp), %rax        # 8-byte Reload
	movabsq	$1, %rcx
	leaq	.L.str13, %r8
	movabsq	$0, %rdx
	leaq	.L.str8, %rsi
	movabsq	$2, %rdi
	leaq	.L.str19, %r9
	movabsq	$3, %r10
	leaq	.L.str23, %r11
	movabsq	$18, %rbx
	leaq	.L.str4, %r14
	leaq	.L.str16, %r15
	leaq	.L.str22, %r12
	movl	$0, %ebp
	movl	$1, %r13d
	movq	%rax, 1560(%rsp)        # 8-byte Spill
	movabsq	$19134, %rax            # imm = 0x4ABE
	movq	%rax, 1552(%rsp)        # 8-byte Spill
	movabsq	$64, %rax
	movq	%rax, 1544(%rsp)        # 8-byte Spill
	leaq	.L.str20, %rax
	movq	%rax, 1536(%rsp)        # 8-byte Spill
	leaq	stdout, %rax
	movq	%rax, 1528(%rsp)        # 8-byte Spill
	leaq	.L.str21, %rax
	movq	%rax, 1520(%rsp)        # 8-byte Spill
	movabsq	$20, %rax
	movq	%rax, 1512(%rsp)        # 8-byte Spill
	movabsq	$27, %rax
	movq	%rax, 1504(%rsp)        # 8-byte Spill
	leaq	.L.str17, %rax
	movq	%rax, 1496(%rsp)        # 8-byte Spill
	leaq	.L.str11, %rax
	movq	%rax, 1488(%rsp)        # 8-byte Spill
	leaq	.L.str7, %rax
	movq	%rax, 1480(%rsp)        # 8-byte Spill
	leaq	.L.str18, %rax
	movq	%rax, 1472(%rsp)        # 8-byte Spill
	movabsq	$-1, %rax
	movq	%rax, 1464(%rsp)        # 8-byte Spill
	movabsq	$48, %rax
	.loc	1 20 0                  # feature_extraction.c:20:0
.Ltmp25:
	movq	%rax, 1456(%rsp)        # 8-byte Spill
	movq	1464(%rsp), %rax        # 8-byte Reload
	movq	%rdi, 1448(%rsp)        # 8-byte Spill
	movq	%rax, %rdi
	movq	%rsi, 1440(%rsp)        # 8-byte Spill
	movq	%r14, %rsi
	movq	%rdx, 1432(%rsp)        # 8-byte Spill
	movq	%r15, %rdx
	movq	1496(%rsp), %rax        # 8-byte Reload
	movq	%rcx, 1424(%rsp)        # 8-byte Spill
	movq	%rax, %rcx
	movq	1456(%rsp), %rax        # 8-byte Reload
	movq	%r8, 1416(%rsp)         # 8-byte Spill
	movq	%rax, %r8
	movq	%r9, 1408(%rsp)         # 8-byte Spill
	movl	%ebp, %r9d
	movl	$1, (%rsp)
	movq	%r15, 1400(%rsp)        # 8-byte Spill
	movq	%r14, 1392(%rsp)        # 8-byte Spill
	movq	%r12, 1384(%rsp)        # 8-byte Spill
	movl	%ebp, 1380(%rsp)        # 4-byte Spill
	movl	%r13d, 1376(%rsp)       # 4-byte Spill
	movq	%rbx, 1368(%rsp)        # 8-byte Spill
	movq	%r10, 1360(%rsp)        # 8-byte Spill
	movq	%r11, 1352(%rsp)        # 8-byte Spill
	callq	trace_logger_log0
	movq	1448(%rsp), %rdi        # 8-byte Reload
	movq	1544(%rsp), %rsi        # 8-byte Reload
	movq	1432(%rsp), %rdx        # 8-byte Reload
	movq	1424(%rsp), %rcx        # 8-byte Reload
	movq	1472(%rsp), %r8         # 8-byte Reload
	movq	1424(%rsp), %r9         # 8-byte Reload
	movq	1408(%rsp), %rax        # 8-byte Reload
	movq	%rax, (%rsp)
	callq	trace_logger_log_int
	movq	1424(%rsp), %rdi        # 8-byte Reload
	movq	1544(%rsp), %rsi        # 8-byte Reload
	movq	1432(%rsp), %rdx        # 8-byte Reload
	movq	1432(%rsp), %rcx        # 8-byte Reload
	movq	1480(%rsp), %r8         # 8-byte Reload
	movq	1424(%rsp), %r9         # 8-byte Reload
	movq	1488(%rsp), %rax        # 8-byte Reload
	movq	%rax, (%rsp)
	callq	trace_logger_log_int
	movq	1552(%rsp), %rdi        # 8-byte Reload
	movq	1544(%rsp), %rsi        # 8-byte Reload
	movq	1560(%rsp), %rdx        # 8-byte Reload
	movq	1424(%rsp), %rcx        # 8-byte Reload
	movq	1496(%rsp), %r8         # 8-byte Reload
	movq	1432(%rsp), %r9         # 8-byte Reload
	movq	1488(%rsp), %rax        # 8-byte Reload
	movq	%rax, (%rsp)
	callq	trace_logger_log_int
	movq	1512(%rsp), %rdi        # 8-byte Reload
	movq	1392(%rsp), %rsi        # 8-byte Reload
	movq	1400(%rsp), %rdx        # 8-byte Reload
	movq	1536(%rsp), %rcx        # 8-byte Reload
	movq	1504(%rsp), %r8         # 8-byte Reload
	movl	1380(%rsp), %r9d        # 4-byte Reload
	movl	$1, (%rsp)
	callq	trace_logger_log0
	movq	1424(%rsp), %rdi        # 8-byte Reload
	movq	1544(%rsp), %rsi        # 8-byte Reload
	movq	1528(%rsp), %rdx        # 8-byte Reload
	movq	1424(%rsp), %rcx        # 8-byte Reload
	movq	1520(%rsp), %r8         # 8-byte Reload
	movq	1432(%rsp), %r9         # 8-byte Reload
	movq	1440(%rsp), %rax        # 8-byte Reload
	movq	%rax, (%rsp)
	callq	trace_logger_log_ptr
	movq	stdout, %rax
.Ltmp26:
	.loc	1 18 0                  # feature_extraction.c:18:0
	movq	1552(%rsp), %rdi        # 8-byte Reload
	movq	1544(%rsp), %rsi        # 8-byte Reload
	movq	%rax, %rdx
	movq	1424(%rsp), %rcx        # 8-byte Reload
	movq	1536(%rsp), %r8         # 8-byte Reload
	movq	1432(%rsp), %r9         # 8-byte Reload
	movq	1440(%rsp), %r10        # 8-byte Reload
	movq	%r10, (%rsp)
	movq	%rax, 1344(%rsp)        # 8-byte Spill
	callq	trace_logger_log_ptr
	movq	1368(%rsp), %rdi        # 8-byte Reload
	movq	1392(%rsp), %rsi        # 8-byte Reload
	movq	1400(%rsp), %rdx        # 8-byte Reload
	movq	1384(%rsp), %rcx        # 8-byte Reload
	movq	1448(%rsp), %r8         # 8-byte Reload
	movl	1380(%rsp), %r9d        # 4-byte Reload
	movl	$1, (%rsp)
	callq	trace_logger_log0
	movq	1360(%rsp), %rdi        # 8-byte Reload
	movq	1432(%rsp), %rsi        # 8-byte Reload
	movq	1432(%rsp), %rdx        # 8-byte Reload
	movq	1424(%rsp), %rcx        # 8-byte Reload
	movq	1352(%rsp), %r8         # 8-byte Reload
	movq	1432(%rsp), %r9         # 8-byte Reload
	movq	1440(%rsp), %rax        # 8-byte Reload
	movq	%rax, (%rsp)
	callq	trace_logger_log_int
	movq	1448(%rsp), %rdi        # 8-byte Reload
	movq	1432(%rsp), %rsi        # 8-byte Reload
	movq	1432(%rsp), %rdx        # 8-byte Reload
	movq	1424(%rsp), %rcx        # 8-byte Reload
	movq	1408(%rsp), %r8         # 8-byte Reload
	movq	1432(%rsp), %r9         # 8-byte Reload
	movq	1440(%rsp), %rax        # 8-byte Reload
	movq	%rax, (%rsp)
	callq	trace_logger_log_int
	movb	1583(%rsp), %al         # 1-byte Reload
	andb	$1, %al
	movzbl	%al, %ebp
	movl	%ebp, %edx
	movq	1424(%rsp), %rdi        # 8-byte Reload
	movq	1424(%rsp), %rsi        # 8-byte Reload
	movq	1424(%rsp), %rcx        # 8-byte Reload
	movq	1416(%rsp), %r8         # 8-byte Reload
	movq	1432(%rsp), %r9         # 8-byte Reload
	movq	1440(%rsp), %r10        # 8-byte Reload
	movq	%r10, (%rsp)
	callq	trace_logger_log_int
	movb	1583(%rsp), %al         # 1-byte Reload
	testb	$1, %al
	movq	1344(%rsp), %rcx        # 8-byte Reload
	movq	%rcx, 1336(%rsp)        # 8-byte Spill
	jne	.LBB0_3
	jmp	.LBB0_5
.LBB0_3:                                # %.lr.ph
                                        #   in Loop: Header=BB0_2 Depth=1
	movabsq	$0, %rax
	movabsq	$1, %rcx
	leaq	.L.str28, %r8
	leaq	.L.str8, %rdx
	movabsq	$18, %rsi
	leaq	.L.str4, %rdi
	leaq	.L.str23, %r9
	leaq	.L.str27, %r10
	movabsq	$2, %r11
	movl	$0, %ebx
	movl	$1, %ebp
	movabsq	$19134, %r14            # imm = 0x4ABE
	movabsq	$64, %r15
	leaq	.L.str26, %r12
	movabsq	$32, %r13
	movq	%rax, 1328(%rsp)        # 8-byte Spill
	leaq	.L.str25, %rax
	movq	%rax, 1320(%rsp)        # 8-byte Spill
	movabsq	$35, %rax
	movq	%rax, 1312(%rsp)        # 8-byte Spill
	leaq	.L.str24, %rax
	movq	%rax, 1304(%rsp)        # 8-byte Spill
	leaq	.L.str14, %rax
	movq	%rax, 1296(%rsp)        # 8-byte Spill
	movabsq	$20, %rax
	movq	%rax, 1288(%rsp)        # 8-byte Spill
	movabsq	$12, %rax
	movq	%rax, 1280(%rsp)        # 8-byte Spill
	leaq	.L.str17, %rax
	movq	%rax, 1272(%rsp)        # 8-byte Spill
	movabsq	$33, %rax
	.loc	1 20 0                  # feature_extraction.c:20:0
.Ltmp27:
	movq	%rax, 1264(%rsp)        # 8-byte Spill
	movq	1288(%rsp), %rax        # 8-byte Reload
	movq	%rdi, 1256(%rsp)        # 8-byte Spill
	movq	%rax, %rdi
	movq	1256(%rsp), %rax        # 8-byte Reload
	movq	%rsi, 1248(%rsp)        # 8-byte Spill
	movq	%rax, %rsi
	movq	%rdx, 1240(%rsp)        # 8-byte Spill
	movq	%r9, %rdx
	movq	1304(%rsp), %rax        # 8-byte Reload
	movq	%rcx, 1232(%rsp)        # 8-byte Spill
	movq	%rax, %rcx
	movq	1264(%rsp), %rax        # 8-byte Reload
	movq	%r8, 1224(%rsp)         # 8-byte Spill
	movq	%rax, %r8
	movq	%r9, 1216(%rsp)         # 8-byte Spill
	movl	%ebx, %r9d
	movl	$1, (%rsp)
	movq	%r14, 1208(%rsp)        # 8-byte Spill
	movl	%ebp, 1204(%rsp)        # 4-byte Spill
	movq	%r15, 1192(%rsp)        # 8-byte Spill
	movq	%r12, 1184(%rsp)        # 8-byte Spill
	movq	%r13, 1176(%rsp)        # 8-byte Spill
	movl	%ebx, 1172(%rsp)        # 4-byte Spill
	movq	%r10, 1160(%rsp)        # 8-byte Spill
	movq	%r11, 1152(%rsp)        # 8-byte Spill
	callq	trace_logger_log0
	movq	1232(%rsp), %rdi        # 8-byte Reload
	movq	1192(%rsp), %rsi        # 8-byte Reload
	movq	1560(%rsp), %rdx        # 8-byte Reload
	movq	1232(%rsp), %rcx        # 8-byte Reload
	movq	1272(%rsp), %r8         # 8-byte Reload
	movq	1328(%rsp), %r9         # 8-byte Reload
	movq	1240(%rsp), %rax        # 8-byte Reload
	movq	%rax, (%rsp)
	callq	trace_logger_log_int
	movq	1560(%rsp), %rax        # 8-byte Reload
	movl	%eax, %ebx
	movl	%ebx, %ebp
	movl	%ebp, %edx
	movq	1208(%rsp), %rdi        # 8-byte Reload
	movq	1176(%rsp), %rsi        # 8-byte Reload
	movq	1232(%rsp), %rcx        # 8-byte Reload
	movq	1304(%rsp), %r8         # 8-byte Reload
	movq	1328(%rsp), %r9         # 8-byte Reload
	movq	1240(%rsp), %r10        # 8-byte Reload
	movq	%r10, (%rsp)
	movl	%ebx, 1148(%rsp)        # 4-byte Spill
	callq	trace_logger_log_int
	movq	1288(%rsp), %rdi        # 8-byte Reload
	movq	1256(%rsp), %rsi        # 8-byte Reload
	movq	1216(%rsp), %rdx        # 8-byte Reload
	movq	1320(%rsp), %rcx        # 8-byte Reload
	movq	1280(%rsp), %r8         # 8-byte Reload
	movl	1172(%rsp), %r9d        # 4-byte Reload
	movl	$1, (%rsp)
	callq	trace_logger_log0
	movl	1820(%rsp), %r9d        # 4-byte Reload
	movl	%r9d, %ebx
	movl	%ebx, %edx
	movq	1152(%rsp), %rdi        # 8-byte Reload
	movq	1176(%rsp), %rsi        # 8-byte Reload
	movq	1232(%rsp), %rcx        # 8-byte Reload
	movq	1296(%rsp), %r8         # 8-byte Reload
	movq	1328(%rsp), %r9         # 8-byte Reload
	movq	1240(%rsp), %rax        # 8-byte Reload
	movq	%rax, (%rsp)
	callq	trace_logger_log_int
	movl	1148(%rsp), %ebx        # 4-byte Reload
	movl	%ebx, %ebp
	movl	%ebp, %edx
	movq	1232(%rsp), %rdi        # 8-byte Reload
	movq	1176(%rsp), %rsi        # 8-byte Reload
	movq	1232(%rsp), %rcx        # 8-byte Reload
	movq	1304(%rsp), %r8         # 8-byte Reload
	movq	1328(%rsp), %r9         # 8-byte Reload
	movq	1240(%rsp), %rax        # 8-byte Reload
	movq	%rax, (%rsp)
	callq	trace_logger_log_int
	movl	1148(%rsp), %ebx        # 4-byte Reload
	movl	1820(%rsp), %ebp        # 4-byte Reload
	imull	%ebp, %ebx
.Ltmp28:
	.loc	1 18 0                  # feature_extraction.c:18:0
	movl	%ebx, %esi
	movl	%esi, %edx
	movq	1208(%rsp), %rdi        # 8-byte Reload
	movq	1176(%rsp), %rsi        # 8-byte Reload
	movq	1232(%rsp), %rcx        # 8-byte Reload
	movq	1320(%rsp), %r8         # 8-byte Reload
	movq	1328(%rsp), %r9         # 8-byte Reload
	movq	1240(%rsp), %rax        # 8-byte Reload
	movq	%rax, (%rsp)
	movl	%ebx, 1144(%rsp)        # 4-byte Spill
	callq	trace_logger_log_int
	movq	1248(%rsp), %rdi        # 8-byte Reload
	movq	1256(%rsp), %rsi        # 8-byte Reload
	movq	1216(%rsp), %rdx        # 8-byte Reload
	movq	1184(%rsp), %rcx        # 8-byte Reload
	movq	1312(%rsp), %r8         # 8-byte Reload
	movl	1172(%rsp), %r9d        # 4-byte Reload
	movl	$1, (%rsp)
	callq	trace_logger_log0
	movl	1144(%rsp), %r9d        # 4-byte Reload
	movl	%r9d, %ebx
	movl	%ebx, %edx
	movq	1232(%rsp), %rdi        # 8-byte Reload
	movq	1176(%rsp), %rsi        # 8-byte Reload
	movq	1232(%rsp), %rcx        # 8-byte Reload
	movq	1320(%rsp), %r8         # 8-byte Reload
	movq	1328(%rsp), %r9         # 8-byte Reload
	movq	1240(%rsp), %rax        # 8-byte Reload
	movq	%rax, (%rsp)
	callq	trace_logger_log_int
	movl	1144(%rsp), %ebx        # 4-byte Reload
	movslq	%ebx, %rax
	movq	1208(%rsp), %rdi        # 8-byte Reload
	movq	1192(%rsp), %rsi        # 8-byte Reload
	movq	%rax, %rdx
	movq	1232(%rsp), %rcx        # 8-byte Reload
	movq	1184(%rsp), %r8         # 8-byte Reload
	movq	1328(%rsp), %r9         # 8-byte Reload
	movq	1240(%rsp), %r10        # 8-byte Reload
	movq	%r10, (%rsp)
	movq	%rax, 1136(%rsp)        # 8-byte Spill
	callq	trace_logger_log_int
	movq	1248(%rsp), %rdi        # 8-byte Reload
	movq	1256(%rsp), %rsi        # 8-byte Reload
	movq	1216(%rsp), %rdx        # 8-byte Reload
	movq	1160(%rsp), %rcx        # 8-byte Reload
	movq	1152(%rsp), %r8         # 8-byte Reload
	movl	1172(%rsp), %r9d        # 4-byte Reload
	movl	$1, (%rsp)
	callq	trace_logger_log0
	movq	1232(%rsp), %rdi        # 8-byte Reload
	movq	1328(%rsp), %rsi        # 8-byte Reload
	movq	1328(%rsp), %rdx        # 8-byte Reload
	movq	1232(%rsp), %rcx        # 8-byte Reload
	movq	1224(%rsp), %r8         # 8-byte Reload
	movq	1328(%rsp), %r9         # 8-byte Reload
	movq	1240(%rsp), %rax        # 8-byte Reload
	movq	%rax, (%rsp)
	callq	trace_logger_log_int
	movq	1328(%rsp), %rax        # 8-byte Reload
	movq	1344(%rsp), %rcx        # 8-byte Reload
	movq	%rax, 1128(%rsp)        # 8-byte Spill
	movq	%rcx, 1120(%rsp)        # 8-byte Spill
.LBB0_4:                                #   Parent Loop BB0_2 Depth=1
                                        # =>  This Inner Loop Header: Depth=2
	movq	1120(%rsp), %rax        # 8-byte Reload
	movq	1128(%rsp), %rcx        # 8-byte Reload
	movabsq	$2, %rdx
	movabsq	$64, %rsi
	leaq	.L.str, %rdi
	movabsq	$0, %r8
	leaq	.L.str7, %r9
	leaq	.L.str8, %r10
	movabsq	$1, %r11
	leaq	.L.str31, %rbx
	movabsq	$5, %r14
	leaq	fprintf, %r15
	leaq	.L.str39, %r12
	movabsq	$20, %r13
	leaq	.L.str4, %rbp
	movq	%rax, 1112(%rsp)        # 8-byte Spill
	leaq	.L.str28, %rax
	movq	%rax, 1104(%rsp)        # 8-byte Spill
	leaq	.L.str38, %rax
	movq	%rax, 1096(%rsp)        # 8-byte Spill
	movabsq	$49, %rax
	movq	%rsi, 1088(%rsp)        # 8-byte Spill
	movl	$0, %esi
	movl	%esi, 1084(%rsp)        # 4-byte Spill
	movl	$1, %esi
	movq	%rax, 1072(%rsp)        # 8-byte Spill
	movabsq	$19134, %rax            # imm = 0x4ABE
	movq	%rax, 1064(%rsp)        # 8-byte Spill
	movabsq	$32, %rax
	movq	%rax, 1056(%rsp)        # 8-byte Spill
	leaq	.L.str37, %rax
	movq	%rax, 1048(%rsp)        # 8-byte Spill
	leaq	.L.str33, %rax
	movq	%rax, 1040(%rsp)        # 8-byte Spill
	movabsq	$33, %rax
	movq	%rax, 1032(%rsp)        # 8-byte Spill
	leaq	.L.str36, %rax
	movq	%rax, 1024(%rsp)        # 8-byte Spill
	leaq	.L.str34, %rax
	movq	%rax, 1016(%rsp)        # 8-byte Spill
	movabsq	$27, %rax
	movq	%rax, 1008(%rsp)        # 8-byte Spill
	leaq	.L.str35, %rax
	movq	%rax, 1000(%rsp)        # 8-byte Spill
	movabsq	$29, %rax
	movq	%rax, 992(%rsp)         # 8-byte Spill
	leaq	.L.str29, %rax
	movq	%rax, 984(%rsp)         # 8-byte Spill
	leaq	.L.str26, %rax
	movq	%rax, 976(%rsp)         # 8-byte Spill
	movabsq	$8, %rax
	movq	%rax, 968(%rsp)         # 8-byte Spill
	leaq	.L.str23, %rax
	movq	%rax, 960(%rsp)         # 8-byte Spill
	leaq	.L.str20, %rax
	movq	%rax, 952(%rsp)         # 8-byte Spill
	leaq	.L.str32, %rax
	movq	%rax, 944(%rsp)         # 8-byte Spill
	movabsq	$-1, %rax
	movq	%rax, 936(%rsp)         # 8-byte Spill
	movabsq	$48, %rax
	movq	%rax, 928(%rsp)         # 8-byte Spill
	leaq	.L.str30, %rax
	.loc	1 20 0                  # feature_extraction.c:20:0
.Ltmp29:
	movq	%rax, 920(%rsp)         # 8-byte Spill
	movq	936(%rsp), %rax         # 8-byte Reload
	movq	%rdi, 912(%rsp)         # 8-byte Spill
	movq	%rax, %rdi
	movl	%esi, 908(%rsp)         # 4-byte Spill
	movq	%rbp, %rsi
	movq	1104(%rsp), %rax        # 8-byte Reload
	movq	%rdx, 896(%rsp)         # 8-byte Spill
	movq	%rax, %rdx
	movq	984(%rsp), %rax         # 8-byte Reload
	movq	%rcx, 888(%rsp)         # 8-byte Spill
	movq	%rax, %rcx
	movq	928(%rsp), %rax         # 8-byte Reload
	movq	%r8, 880(%rsp)          # 8-byte Spill
	movq	%rax, %r8
	movl	1084(%rsp), %eax        # 4-byte Reload
	movq	%r9, 872(%rsp)          # 8-byte Spill
	movl	%eax, %r9d
	movl	$1, (%rsp)
	movq	%r15, 864(%rsp)         # 8-byte Spill
	movq	%r12, 856(%rsp)         # 8-byte Spill
	movq	%r13, 848(%rsp)         # 8-byte Spill
	movq	%rbp, 840(%rsp)         # 8-byte Spill
	movq	%r14, 832(%rsp)         # 8-byte Spill
	movq	%rbx, 824(%rsp)         # 8-byte Spill
	movq	%r10, 816(%rsp)         # 8-byte Spill
	movq	%r11, 808(%rsp)         # 8-byte Spill
	callq	trace_logger_log0
	movq	896(%rsp), %rdi         # 8-byte Reload
	movq	1088(%rsp), %rsi        # 8-byte Reload
	movq	880(%rsp), %rdx         # 8-byte Reload
	movq	808(%rsp), %rcx         # 8-byte Reload
	movq	920(%rsp), %r8          # 8-byte Reload
	movq	808(%rsp), %r9          # 8-byte Reload
	movq	1104(%rsp), %r10        # 8-byte Reload
	movq	%r10, (%rsp)
	callq	trace_logger_log_int
	movq	808(%rsp), %rdi         # 8-byte Reload
	movq	1088(%rsp), %rsi        # 8-byte Reload
	movq	880(%rsp), %rdx         # 8-byte Reload
	movq	880(%rsp), %rcx         # 8-byte Reload
	movq	872(%rsp), %r8          # 8-byte Reload
	movq	808(%rsp), %r9          # 8-byte Reload
	movq	960(%rsp), %r10         # 8-byte Reload
	movq	%r10, (%rsp)
	callq	trace_logger_log_int
	movq	1064(%rsp), %rdi        # 8-byte Reload
	movq	1088(%rsp), %rsi        # 8-byte Reload
	movq	888(%rsp), %rdx         # 8-byte Reload
	movq	808(%rsp), %rcx         # 8-byte Reload
	movq	984(%rsp), %r8          # 8-byte Reload
	movq	880(%rsp), %r9          # 8-byte Reload
	movq	960(%rsp), %r10         # 8-byte Reload
	movq	%r10, (%rsp)
	callq	trace_logger_log_int
	movq	936(%rsp), %rdi         # 8-byte Reload
	movq	840(%rsp), %rsi         # 8-byte Reload
	movq	1104(%rsp), %rdx        # 8-byte Reload
	movq	824(%rsp), %rcx         # 8-byte Reload
	movq	928(%rsp), %r8          # 8-byte Reload
	movl	1084(%rsp), %r9d        # 4-byte Reload
	movl	$1, (%rsp)
	callq	trace_logger_log0
	movq	896(%rsp), %rdi         # 8-byte Reload
	movq	1088(%rsp), %rsi        # 8-byte Reload
	movq	880(%rsp), %rdx         # 8-byte Reload
	movq	808(%rsp), %rcx         # 8-byte Reload
	movq	944(%rsp), %r8          # 8-byte Reload
	movq	808(%rsp), %r9          # 8-byte Reload
	movq	1104(%rsp), %r10        # 8-byte Reload
	movq	%r10, (%rsp)
	callq	trace_logger_log_int
	movq	808(%rsp), %rdi         # 8-byte Reload
	movq	1088(%rsp), %rsi        # 8-byte Reload
	movq	880(%rsp), %rdx         # 8-byte Reload
	movq	808(%rsp), %rcx         # 8-byte Reload
	movq	952(%rsp), %r8          # 8-byte Reload
	movq	808(%rsp), %r9          # 8-byte Reload
	movq	960(%rsp), %r10         # 8-byte Reload
	movq	%r10, (%rsp)
	callq	trace_logger_log_int
	movq	1064(%rsp), %rdi        # 8-byte Reload
	movq	1088(%rsp), %rsi        # 8-byte Reload
	movq	1112(%rsp), %rdx        # 8-byte Reload
	movq	808(%rsp), %rcx         # 8-byte Reload
	movq	824(%rsp), %r8          # 8-byte Reload
	movq	880(%rsp), %r9          # 8-byte Reload
	movq	960(%rsp), %r10         # 8-byte Reload
	movq	%r10, (%rsp)
	callq	trace_logger_log_ptr
	movq	848(%rsp), %rdi         # 8-byte Reload
	movq	840(%rsp), %rsi         # 8-byte Reload
	movq	1104(%rsp), %rdx        # 8-byte Reload
	movq	1040(%rsp), %rcx        # 8-byte Reload
	movq	968(%rsp), %r8          # 8-byte Reload
	movl	1084(%rsp), %r9d        # 4-byte Reload
	movl	$1, (%rsp)
	callq	trace_logger_log0
	movq	896(%rsp), %rdi         # 8-byte Reload
	movq	1088(%rsp), %rsi        # 8-byte Reload
	movq	1136(%rsp), %rdx        # 8-byte Reload
	movq	808(%rsp), %rcx         # 8-byte Reload
	movq	976(%rsp), %r8          # 8-byte Reload
	movq	880(%rsp), %r9          # 8-byte Reload
	movq	816(%rsp), %r10         # 8-byte Reload
	movq	%r10, (%rsp)
	callq	trace_logger_log_int
	movq	808(%rsp), %rdi         # 8-byte Reload
	movq	1088(%rsp), %rsi        # 8-byte Reload
	movq	888(%rsp), %rdx         # 8-byte Reload
	movq	808(%rsp), %rcx         # 8-byte Reload
	movq	984(%rsp), %r8          # 8-byte Reload
	movq	880(%rsp), %r9          # 8-byte Reload
	movq	816(%rsp), %r10         # 8-byte Reload
	movq	%r10, (%rsp)
	callq	trace_logger_log_int
	movq	888(%rsp), %rcx         # 8-byte Reload
	movq	1136(%rsp), %rdx        # 8-byte Reload
	addq	%rdx, %rcx
	movq	1064(%rsp), %rdi        # 8-byte Reload
	movq	1088(%rsp), %rsi        # 8-byte Reload
	movq	%rcx, %rdx
	movq	808(%rsp), %r8          # 8-byte Reload
	movq	%rcx, 800(%rsp)         # 8-byte Spill
	movq	%r8, %rcx
	movq	1040(%rsp), %r8         # 8-byte Reload
	movq	880(%rsp), %r9          # 8-byte Reload
	movq	816(%rsp), %r10         # 8-byte Reload
	movq	%r10, (%rsp)
	callq	trace_logger_log_int
	movq	848(%rsp), %rdi         # 8-byte Reload
	movq	840(%rsp), %rsi         # 8-byte Reload
	movq	1104(%rsp), %rdx        # 8-byte Reload
	movq	1016(%rsp), %rcx        # 8-byte Reload
	movq	992(%rsp), %r8          # 8-byte Reload
	movl	1084(%rsp), %r9d        # 4-byte Reload
	movl	$1, (%rsp)
	callq	trace_logger_log0
	movq	896(%rsp), %rdi         # 8-byte Reload
	movq	1088(%rsp), %rsi        # 8-byte Reload
	movq	800(%rsp), %rdx         # 8-byte Reload
	movq	808(%rsp), %rcx         # 8-byte Reload
	movq	1040(%rsp), %r8         # 8-byte Reload
	movq	880(%rsp), %r9          # 8-byte Reload
	movq	816(%rsp), %r10         # 8-byte Reload
	movq	%r10, (%rsp)
	callq	trace_logger_log_int
	movq	808(%rsp), %rdi         # 8-byte Reload
	movq	1088(%rsp), %rsi        # 8-byte Reload
	movq	1824(%rsp), %rdx        # 8-byte Reload
	movq	808(%rsp), %rcx         # 8-byte Reload
	movq	1000(%rsp), %r8         # 8-byte Reload
	movq	880(%rsp), %r9          # 8-byte Reload
	movq	816(%rsp), %r10         # 8-byte Reload
	movq	%r10, (%rsp)
	callq	trace_logger_log_ptr
	movq	800(%rsp), %rcx         # 8-byte Reload
	shlq	$3, %rcx
	movq	1824(%rsp), %rdx        # 8-byte Reload
	addq	%rcx, %rdx
	movq	1064(%rsp), %rdi        # 8-byte Reload
	movq	1088(%rsp), %rsi        # 8-byte Reload
	movq	%rdx, 792(%rsp)         # 8-byte Spill
	movq	808(%rsp), %rcx         # 8-byte Reload
	movq	1016(%rsp), %r8         # 8-byte Reload
	movq	880(%rsp), %r9          # 8-byte Reload
	movq	816(%rsp), %r10         # 8-byte Reload
	movq	%r10, (%rsp)
	callq	trace_logger_log_ptr
	movq	848(%rsp), %rdi         # 8-byte Reload
	movq	840(%rsp), %rsi         # 8-byte Reload
	movq	1104(%rsp), %rdx        # 8-byte Reload
	movq	1024(%rsp), %rcx        # 8-byte Reload
	movq	1008(%rsp), %r8         # 8-byte Reload
	movl	1084(%rsp), %r9d        # 4-byte Reload
	movl	$1, (%rsp)
	callq	trace_logger_log0
	movq	808(%rsp), %rdi         # 8-byte Reload
	movq	1088(%rsp), %rsi        # 8-byte Reload
	movq	792(%rsp), %rdx         # 8-byte Reload
	movq	808(%rsp), %rcx         # 8-byte Reload
	movq	1016(%rsp), %r8         # 8-byte Reload
	movq	880(%rsp), %r9          # 8-byte Reload
	movq	816(%rsp), %r10         # 8-byte Reload
	movq	%r10, (%rsp)
	callq	trace_logger_log_ptr
	movq	1824(%rsp), %rcx        # 8-byte Reload
	movq	800(%rsp), %rdx         # 8-byte Reload
	vmovsd	(%rcx,%rdx,8), %xmm0
	movq	1064(%rsp), %rdi        # 8-byte Reload
	movq	1088(%rsp), %rsi        # 8-byte Reload
	vmovsd	%xmm0, 784(%rsp)        # 8-byte Spill
	movq	808(%rsp), %rdx         # 8-byte Reload
	movq	1024(%rsp), %rcx        # 8-byte Reload
	movq	880(%rsp), %r8          # 8-byte Reload
	movq	816(%rsp), %r9          # 8-byte Reload
	callq	trace_logger_log_double
	movq	848(%rsp), %rdi         # 8-byte Reload
	movq	840(%rsp), %rsi         # 8-byte Reload
	movq	1104(%rsp), %rdx        # 8-byte Reload
	movq	1048(%rsp), %rcx        # 8-byte Reload
	movq	1032(%rsp), %r8         # 8-byte Reload
	movl	1084(%rsp), %r9d        # 4-byte Reload
	movl	$1, (%rsp)
	callq	trace_logger_log0
	movq	808(%rsp), %rdi         # 8-byte Reload
	movq	1088(%rsp), %rsi        # 8-byte Reload
	movq	800(%rsp), %rdx         # 8-byte Reload
	movq	808(%rsp), %rcx         # 8-byte Reload
	movq	1040(%rsp), %r8         # 8-byte Reload
	movq	880(%rsp), %r9          # 8-byte Reload
	movq	816(%rsp), %r10         # 8-byte Reload
	movq	%r10, (%rsp)
	callq	trace_logger_log_int
	movq	800(%rsp), %rcx         # 8-byte Reload
	movl	%ecx, %eax
	movl	%eax, %esi
	movl	%esi, %edx
	movq	1064(%rsp), %rdi        # 8-byte Reload
	movq	1056(%rsp), %rsi        # 8-byte Reload
	movq	808(%rsp), %rcx         # 8-byte Reload
	movq	1048(%rsp), %r8         # 8-byte Reload
	movq	880(%rsp), %r9          # 8-byte Reload
	movq	816(%rsp), %r10         # 8-byte Reload
	movq	%r10, (%rsp)
	movl	%eax, 780(%rsp)         # 4-byte Spill
	callq	trace_logger_log_int
	movq	848(%rsp), %rdi         # 8-byte Reload
	movq	840(%rsp), %rsi         # 8-byte Reload
	movq	1104(%rsp), %rdx        # 8-byte Reload
	movq	1096(%rsp), %rcx        # 8-byte Reload
	movq	1072(%rsp), %r8         # 8-byte Reload
	movl	1084(%rsp), %r9d        # 4-byte Reload
	movl	$1, (%rsp)
	callq	trace_logger_log0
	movq	832(%rsp), %rdi         # 8-byte Reload
	movq	1088(%rsp), %rsi        # 8-byte Reload
	movq	864(%rsp), %rdx         # 8-byte Reload
	movq	808(%rsp), %rcx         # 8-byte Reload
	movq	856(%rsp), %r8          # 8-byte Reload
	movq	880(%rsp), %r9          # 8-byte Reload
	movq	816(%rsp), %r10         # 8-byte Reload
	movq	%r10, (%rsp)
	callq	trace_logger_log_ptr
	movq	808(%rsp), %rdi         # 8-byte Reload
	movq	1088(%rsp), %rsi        # 8-byte Reload
	movq	1112(%rsp), %rdx        # 8-byte Reload
	movq	808(%rsp), %rcx         # 8-byte Reload
	movq	824(%rsp), %r8          # 8-byte Reload
	movq	880(%rsp), %r9          # 8-byte Reload
	movq	816(%rsp), %r10         # 8-byte Reload
	movq	%r10, (%rsp)
	callq	trace_logger_log_ptr
	movq	896(%rsp), %rdi         # 8-byte Reload
	movq	1088(%rsp), %rsi        # 8-byte Reload
	movq	912(%rsp), %rdx         # 8-byte Reload
	movq	880(%rsp), %rcx         # 8-byte Reload
	movq	872(%rsp), %r8          # 8-byte Reload
	movq	880(%rsp), %r9          # 8-byte Reload
	movq	816(%rsp), %r10         # 8-byte Reload
	movq	%r10, (%rsp)
	callq	trace_logger_log_ptr
	movl	$.L.str, %eax
	movl	%eax, %esi
	movb	$1, %al
	movq	1112(%rsp), %rdi        # 8-byte Reload
	movl	780(%rsp), %edx         # 4-byte Reload
	vmovsd	784(%rsp), %xmm0        # 8-byte Reload
	callq	fprintf
	movabsq	$1, %rcx
	leaq	.L.str41, %rsi
	movabsq	$0, %rdi
	leaq	.L.str8, %r8
	movabsq	$2, %r9
	leaq	.L.str28, %r10
	movabsq	$3, %r11
	leaq	.L.str19, %rbx
	movabsq	$18, %r14
	leaq	.L.str4, %r15
	leaq	.L.str42, %r12
	movl	$0, %edx
	movl	$1, %ebp
	movabsq	$19134, %r13            # imm = 0x4ABE
	movq	%rcx, 768(%rsp)         # 8-byte Spill
	movabsq	$32, %rcx
	movq	%rcx, 760(%rsp)         # 8-byte Spill
	leaq	.L.str40, %rcx
	movq	%rcx, 752(%rsp)         # 8-byte Spill
	leaq	.L.str14, %rcx
	movq	%rcx, 744(%rsp)         # 8-byte Spill
	movabsq	$46, %rcx
	movq	%rcx, 736(%rsp)         # 8-byte Spill
	movabsq	$64, %rcx
	movq	%rcx, 728(%rsp)         # 8-byte Spill
	leaq	.L.str30, %rcx
	movq	%rcx, 720(%rsp)         # 8-byte Spill
	movabsq	$33, %rcx
	movq	%rcx, 712(%rsp)         # 8-byte Spill
	leaq	.L.str32, %rcx
	movq	%rcx, 704(%rsp)         # 8-byte Spill
	leaq	stdout, %rcx
	movq	%rcx, 696(%rsp)         # 8-byte Spill
	leaq	.L.str21, %rcx
	movq	%rcx, 688(%rsp)         # 8-byte Spill
	movabsq	$20, %rcx
	movq	%rcx, 680(%rsp)         # 8-byte Spill
	movabsq	$27, %rcx
	movq	%rcx, 672(%rsp)         # 8-byte Spill
	leaq	.L.str29, %rcx
	movq	%rcx, 664(%rsp)         # 8-byte Spill
	leaq	.L.str7, %rcx
	movq	%rcx, 656(%rsp)         # 8-byte Spill
	movabsq	$8, %rcx
	movq	%rcx, 648(%rsp)         # 8-byte Spill
	leaq	.L.str38, %rcx
.Ltmp30:
	.loc	1 18 0                  # feature_extraction.c:18:0
	movl	%eax, %eax
                                        # kill: RAX<def> EAX<kill>
	movq	%rdi, 640(%rsp)         # 8-byte Spill
	movq	%r13, %rdi
	movq	%rax, 632(%rsp)         # 8-byte Spill
	movq	760(%rsp), %rax         # 8-byte Reload
	movq	%rsi, 624(%rsp)         # 8-byte Spill
	movq	%rax, %rsi
	movq	632(%rsp), %rax         # 8-byte Reload
	movl	%edx, 620(%rsp)         # 4-byte Spill
	movq	%rax, %rdx
	movq	768(%rsp), %rax         # 8-byte Reload
	movq	%rcx, 608(%rsp)         # 8-byte Spill
	movq	%rax, %rcx
	movq	608(%rsp), %rax         # 8-byte Reload
	movq	%r8, 600(%rsp)          # 8-byte Spill
	movq	%rax, %r8
	movq	640(%rsp), %rax         # 8-byte Reload
	movq	%r9, 592(%rsp)          # 8-byte Spill
	movq	%rax, %r9
	movq	600(%rsp), %rax         # 8-byte Reload
	movq	%rax, (%rsp)
	movq	%r13, 584(%rsp)         # 8-byte Spill
	movq	%r12, 576(%rsp)         # 8-byte Spill
	movl	%ebp, 572(%rsp)         # 4-byte Spill
	movq	%r15, 560(%rsp)         # 8-byte Spill
	movq	%r14, 552(%rsp)         # 8-byte Spill
	movq	%r10, 544(%rsp)         # 8-byte Spill
	movq	%r11, 536(%rsp)         # 8-byte Spill
	movq	%rbx, 528(%rsp)         # 8-byte Spill
	callq	trace_logger_log_int
	movq	552(%rsp), %rdi         # 8-byte Reload
	movq	560(%rsp), %rsi         # 8-byte Reload
	movq	544(%rsp), %rdx         # 8-byte Reload
	movq	720(%rsp), %rcx         # 8-byte Reload
	movq	648(%rsp), %r8          # 8-byte Reload
	movl	620(%rsp), %r9d         # 4-byte Reload
	movl	$1, (%rsp)
	callq	trace_logger_log0
	movq	592(%rsp), %rdi         # 8-byte Reload
	movq	728(%rsp), %rsi         # 8-byte Reload
	movq	768(%rsp), %rdx         # 8-byte Reload
	movq	640(%rsp), %rcx         # 8-byte Reload
	movq	656(%rsp), %r8          # 8-byte Reload
	movq	640(%rsp), %r9          # 8-byte Reload
	movq	600(%rsp), %rax         # 8-byte Reload
	movq	%rax, (%rsp)
	callq	trace_logger_log_int
	movq	768(%rsp), %rdi         # 8-byte Reload
	movq	728(%rsp), %rsi         # 8-byte Reload
	movq	888(%rsp), %rdx         # 8-byte Reload
	movq	768(%rsp), %rcx         # 8-byte Reload
	movq	664(%rsp), %r8          # 8-byte Reload
	movq	640(%rsp), %r9          # 8-byte Reload
	movq	600(%rsp), %rax         # 8-byte Reload
	movq	%rax, (%rsp)
	callq	trace_logger_log_int
	movq	888(%rsp), %rax         # 8-byte Reload
	addq	$1, %rax
	.loc	1 20 0                  # feature_extraction.c:20:0
.Ltmp31:
	movq	584(%rsp), %rdi         # 8-byte Reload
	movq	728(%rsp), %rsi         # 8-byte Reload
	movq	%rax, %rdx
	movq	768(%rsp), %rcx         # 8-byte Reload
	movq	720(%rsp), %r8          # 8-byte Reload
	movq	640(%rsp), %r9          # 8-byte Reload
	movq	600(%rsp), %r10         # 8-byte Reload
	movq	%r10, (%rsp)
	movq	%rax, 520(%rsp)         # 8-byte Spill
	callq	trace_logger_log_int
	movq	680(%rsp), %rdi         # 8-byte Reload
	movq	560(%rsp), %rsi         # 8-byte Reload
	movq	544(%rsp), %rdx         # 8-byte Reload
	movq	704(%rsp), %rcx         # 8-byte Reload
	movq	672(%rsp), %r8          # 8-byte Reload
	movl	620(%rsp), %r9d         # 4-byte Reload
	movl	$1, (%rsp)
	callq	trace_logger_log0
	movq	768(%rsp), %rdi         # 8-byte Reload
	movq	728(%rsp), %rsi         # 8-byte Reload
	movq	696(%rsp), %rdx         # 8-byte Reload
	movq	768(%rsp), %rcx         # 8-byte Reload
	movq	688(%rsp), %r8          # 8-byte Reload
	movq	640(%rsp), %r9          # 8-byte Reload
	movq	600(%rsp), %rax         # 8-byte Reload
	movq	%rax, (%rsp)
	callq	trace_logger_log_ptr
	movq	stdout, %rax
.Ltmp32:
	.loc	1 18 0                  # feature_extraction.c:18:0
	movq	584(%rsp), %rdi         # 8-byte Reload
	movq	728(%rsp), %rsi         # 8-byte Reload
	movq	%rax, %rdx
	movq	768(%rsp), %rcx         # 8-byte Reload
	movq	704(%rsp), %r8          # 8-byte Reload
	movq	640(%rsp), %r9          # 8-byte Reload
	movq	600(%rsp), %r10         # 8-byte Reload
	movq	%r10, (%rsp)
	movq	%rax, 512(%rsp)         # 8-byte Spill
	callq	trace_logger_log_ptr
	movq	552(%rsp), %rdi         # 8-byte Reload
	movq	560(%rsp), %rsi         # 8-byte Reload
	movq	544(%rsp), %rdx         # 8-byte Reload
	movq	752(%rsp), %rcx         # 8-byte Reload
	movq	712(%rsp), %r8          # 8-byte Reload
	movl	620(%rsp), %r9d         # 4-byte Reload
	movl	$1, (%rsp)
	callq	trace_logger_log0
	movq	768(%rsp), %rdi         # 8-byte Reload
	movq	728(%rsp), %rsi         # 8-byte Reload
	movq	520(%rsp), %rdx         # 8-byte Reload
	movq	768(%rsp), %rcx         # 8-byte Reload
	movq	720(%rsp), %r8          # 8-byte Reload
	movq	640(%rsp), %r9          # 8-byte Reload
	movq	600(%rsp), %rax         # 8-byte Reload
	movq	%rax, (%rsp)
	callq	trace_logger_log_int
	movq	520(%rsp), %rax         # 8-byte Reload
	movl	%eax, %ebp
	movl	%ebp, %esi
	movl	%esi, %edx
	movq	584(%rsp), %rdi         # 8-byte Reload
	movq	760(%rsp), %rsi         # 8-byte Reload
	movq	768(%rsp), %rcx         # 8-byte Reload
	movq	752(%rsp), %r8          # 8-byte Reload
	movq	640(%rsp), %r9          # 8-byte Reload
	movq	600(%rsp), %r10         # 8-byte Reload
	movq	%r10, (%rsp)
	movl	%ebp, 508(%rsp)         # 4-byte Spill
	callq	trace_logger_log_int
	movq	552(%rsp), %rdi         # 8-byte Reload
	movq	560(%rsp), %rsi         # 8-byte Reload
	movq	544(%rsp), %rdx         # 8-byte Reload
	movq	624(%rsp), %rcx         # 8-byte Reload
	movq	736(%rsp), %r8          # 8-byte Reload
	movl	620(%rsp), %r9d         # 4-byte Reload
	movl	$1, (%rsp)
	callq	trace_logger_log0
	movl	1820(%rsp), %r9d        # 4-byte Reload
	movl	%r9d, %ebp
	movl	%ebp, %edx
	movq	592(%rsp), %rdi         # 8-byte Reload
	movq	760(%rsp), %rsi         # 8-byte Reload
	movq	768(%rsp), %rcx         # 8-byte Reload
	movq	744(%rsp), %r8          # 8-byte Reload
	movq	640(%rsp), %r9          # 8-byte Reload
	movq	600(%rsp), %rax         # 8-byte Reload
	movq	%rax, (%rsp)
	callq	trace_logger_log_int
	movl	508(%rsp), %ebp         # 4-byte Reload
	movl	%ebp, %esi
	movl	%esi, %edx
	movq	768(%rsp), %rdi         # 8-byte Reload
	movq	760(%rsp), %rsi         # 8-byte Reload
	movq	768(%rsp), %rcx         # 8-byte Reload
	movq	752(%rsp), %r8          # 8-byte Reload
	movq	640(%rsp), %r9          # 8-byte Reload
	movq	600(%rsp), %rax         # 8-byte Reload
	movq	%rax, (%rsp)
	callq	trace_logger_log_int
	movl	508(%rsp), %ebp         # 4-byte Reload
	movl	1820(%rsp), %esi        # 4-byte Reload
	cmpl	%esi, %ebp
	sete	%al
	movb	%al, %cl
	andb	$1, %cl
	movzbl	%cl, %ecx
	movl	%ecx, %edx
	movq	584(%rsp), %rdi         # 8-byte Reload
	movq	768(%rsp), %rsi         # 8-byte Reload
	movq	768(%rsp), %rcx         # 8-byte Reload
	movq	624(%rsp), %r8          # 8-byte Reload
	movq	640(%rsp), %r9          # 8-byte Reload
	movq	600(%rsp), %r10         # 8-byte Reload
	movq	%r10, (%rsp)
	movb	%al, 507(%rsp)          # 1-byte Spill
	callq	trace_logger_log_int
	movq	552(%rsp), %rdi         # 8-byte Reload
	movq	560(%rsp), %rsi         # 8-byte Reload
	movq	544(%rsp), %rdx         # 8-byte Reload
	movq	576(%rsp), %rcx         # 8-byte Reload
	movq	592(%rsp), %r8          # 8-byte Reload
	movl	620(%rsp), %r9d         # 4-byte Reload
	movl	$1, (%rsp)
	callq	trace_logger_log0
	movq	536(%rsp), %rdi         # 8-byte Reload
	movq	640(%rsp), %rsi         # 8-byte Reload
	movq	640(%rsp), %rdx         # 8-byte Reload
	movq	768(%rsp), %rcx         # 8-byte Reload
	movq	528(%rsp), %r8          # 8-byte Reload
	movq	640(%rsp), %r9          # 8-byte Reload
	movq	600(%rsp), %r10         # 8-byte Reload
	movq	%r10, (%rsp)
	callq	trace_logger_log_int
	movq	592(%rsp), %rdi         # 8-byte Reload
	movq	640(%rsp), %rsi         # 8-byte Reload
	movq	640(%rsp), %rdx         # 8-byte Reload
	movq	768(%rsp), %rcx         # 8-byte Reload
	movq	544(%rsp), %r8          # 8-byte Reload
	movq	640(%rsp), %r9          # 8-byte Reload
	movq	600(%rsp), %r10         # 8-byte Reload
	movq	%r10, (%rsp)
	callq	trace_logger_log_int
	movb	507(%rsp), %al          # 1-byte Reload
	andb	$1, %al
	movzbl	%al, %ebp
	movl	%ebp, %edx
	movq	768(%rsp), %rdi         # 8-byte Reload
	movq	768(%rsp), %rsi         # 8-byte Reload
	movq	768(%rsp), %rcx         # 8-byte Reload
	movq	624(%rsp), %r8          # 8-byte Reload
	movq	640(%rsp), %r9          # 8-byte Reload
	movq	600(%rsp), %r10         # 8-byte Reload
	movq	%r10, (%rsp)
	callq	trace_logger_log_int
	movb	507(%rsp), %al          # 1-byte Reload
	testb	$1, %al
	movq	520(%rsp), %rcx         # 8-byte Reload
	movq	512(%rsp), %rdx         # 8-byte Reload
	movq	512(%rsp), %rsi         # 8-byte Reload
	movq	%rcx, 1128(%rsp)        # 8-byte Spill
	movq	%rdx, 1120(%rsp)        # 8-byte Spill
	movq	%rsi, 1336(%rsp)        # 8-byte Spill
	jne	.LBB0_5
	jmp	.LBB0_4
.Ltmp33:
.LBB0_5:                                # %._crit_edge
                                        #   in Loop: Header=BB0_2 Depth=1
	movq	1336(%rsp), %rax        # 8-byte Reload
	movabsq	$2, %rcx
	movabsq	$64, %rdx
	leaq	.L.str1, %rsi
	movabsq	$0, %rdi
	leaq	.L.str7, %r8
	leaq	.L.str8, %r9
	movabsq	$1, %r10
	leaq	.L.str43, %r11
	movabsq	$3, %rbx
	leaq	fprintf, %r14
	leaq	.L.str39, %r15
	movabsq	$22, %r12
	leaq	.L.str4, %r13
	leaq	.L.str19, %rbp
	movq	%rax, 496(%rsp)         # 8-byte Spill
	leaq	.L.str44, %rax
	movq	%rax, 488(%rsp)         # 8-byte Spill
	movabsq	$49, %rax
	movq	%rsi, 480(%rsp)         # 8-byte Spill
	movl	$0, %esi
	movl	%esi, 476(%rsp)         # 4-byte Spill
	movl	$1, %esi
	movq	%rax, 464(%rsp)         # 8-byte Spill
	movabsq	$19134, %rax            # imm = 0x4ABE
	movq	%rax, 456(%rsp)         # 8-byte Spill
	leaq	.L.str16, %rax
	movq	%rax, 448(%rsp)         # 8-byte Spill
	leaq	.L.str20, %rax
	movq	%rax, 440(%rsp)         # 8-byte Spill
	leaq	.L.str32, %rax
	movq	%rax, 432(%rsp)         # 8-byte Spill
	leaq	.L.str28, %rax
	movq	%rax, 424(%rsp)         # 8-byte Spill
	movabsq	$-1, %rax
	movq	%rax, 416(%rsp)         # 8-byte Spill
	movabsq	$48, %rax
	.loc	1 22 0                  # feature_extraction.c:22:0
	movq	%rax, 408(%rsp)         # 8-byte Spill
	movq	416(%rsp), %rax         # 8-byte Reload
	movq	%rdi, 400(%rsp)         # 8-byte Spill
	movq	%rax, %rdi
	movl	%esi, 396(%rsp)         # 4-byte Spill
	movq	%r13, %rsi
	movq	%rdx, 384(%rsp)         # 8-byte Spill
	movq	%rbp, %rdx
	movq	%rcx, 376(%rsp)         # 8-byte Spill
	movq	%r11, %rcx
	movq	408(%rsp), %rax         # 8-byte Reload
	movq	%r8, 368(%rsp)          # 8-byte Spill
	movq	%rax, %r8
	movl	476(%rsp), %eax         # 4-byte Reload
	movq	%r9, 360(%rsp)          # 8-byte Spill
	movl	%eax, %r9d
	movl	$1, (%rsp)
	movq	%r15, 352(%rsp)         # 8-byte Spill
	movq	%r12, 344(%rsp)         # 8-byte Spill
	movq	%r13, 336(%rsp)         # 8-byte Spill
	movq	%rbp, 328(%rsp)         # 8-byte Spill
	movq	%r14, 320(%rsp)         # 8-byte Spill
	movq	%rbx, 312(%rsp)         # 8-byte Spill
	movq	%r10, 304(%rsp)         # 8-byte Spill
	movq	%r11, 296(%rsp)         # 8-byte Spill
	callq	trace_logger_log0
	movq	376(%rsp), %rdi         # 8-byte Reload
	movq	384(%rsp), %rsi         # 8-byte Reload
	movq	400(%rsp), %rdx         # 8-byte Reload
	movq	304(%rsp), %rcx         # 8-byte Reload
	movq	432(%rsp), %r8          # 8-byte Reload
	movq	304(%rsp), %r9          # 8-byte Reload
	movq	424(%rsp), %r10         # 8-byte Reload
	movq	%r10, (%rsp)
	callq	trace_logger_log_int
	movq	304(%rsp), %rdi         # 8-byte Reload
	movq	384(%rsp), %rsi         # 8-byte Reload
	movq	400(%rsp), %rdx         # 8-byte Reload
	movq	304(%rsp), %rcx         # 8-byte Reload
	movq	440(%rsp), %r8          # 8-byte Reload
	movq	304(%rsp), %r9          # 8-byte Reload
	movq	448(%rsp), %r10         # 8-byte Reload
	movq	%r10, (%rsp)
	callq	trace_logger_log_int
	movq	456(%rsp), %rdi         # 8-byte Reload
	movq	384(%rsp), %rsi         # 8-byte Reload
	movq	496(%rsp), %rdx         # 8-byte Reload
	movq	304(%rsp), %rcx         # 8-byte Reload
	movq	296(%rsp), %r8          # 8-byte Reload
	movq	400(%rsp), %r9          # 8-byte Reload
	movq	448(%rsp), %r10         # 8-byte Reload
	movq	%r10, (%rsp)
	callq	trace_logger_log_ptr
	movq	344(%rsp), %rdi         # 8-byte Reload
	movq	336(%rsp), %rsi         # 8-byte Reload
	movq	328(%rsp), %rdx         # 8-byte Reload
	movq	488(%rsp), %rcx         # 8-byte Reload
	movq	464(%rsp), %r8          # 8-byte Reload
	movl	476(%rsp), %r9d         # 4-byte Reload
	movl	$1, (%rsp)
	callq	trace_logger_log0
	movq	312(%rsp), %rdi         # 8-byte Reload
	movq	384(%rsp), %rsi         # 8-byte Reload
	movq	320(%rsp), %rdx         # 8-byte Reload
	movq	304(%rsp), %rcx         # 8-byte Reload
	movq	352(%rsp), %r8          # 8-byte Reload
	movq	400(%rsp), %r9          # 8-byte Reload
	movq	360(%rsp), %r10         # 8-byte Reload
	movq	%r10, (%rsp)
	callq	trace_logger_log_ptr
	movq	304(%rsp), %rdi         # 8-byte Reload
	movq	384(%rsp), %rsi         # 8-byte Reload
	movq	496(%rsp), %rdx         # 8-byte Reload
	movq	304(%rsp), %rcx         # 8-byte Reload
	movq	296(%rsp), %r8          # 8-byte Reload
	movq	400(%rsp), %r9          # 8-byte Reload
	movq	360(%rsp), %r10         # 8-byte Reload
	movq	%r10, (%rsp)
	callq	trace_logger_log_ptr
	movq	376(%rsp), %rdi         # 8-byte Reload
	movq	384(%rsp), %rsi         # 8-byte Reload
	movq	480(%rsp), %rdx         # 8-byte Reload
	movq	400(%rsp), %rcx         # 8-byte Reload
	movq	368(%rsp), %r8          # 8-byte Reload
	movq	400(%rsp), %r9          # 8-byte Reload
	movq	360(%rsp), %r10         # 8-byte Reload
	movq	%r10, (%rsp)
	callq	trace_logger_log_ptr
	movl	$.L.str1, %eax
	movl	%eax, %esi
	xorl	%eax, %eax
                                        # kill: AL<def> AL<kill> EAX<kill>
	movq	496(%rsp), %rdi         # 8-byte Reload
	callq	fprintf
	movabsq	$1, %rcx
	leaq	.L.str46, %rdx
	movabsq	$0, %rsi
	leaq	.L.str8, %rdi
	movabsq	$2, %r8
	leaq	.L.str16, %r9
	movabsq	$3, %r10
	leaq	.L.str12, %r11
	movabsq	$16, %rbx
	leaq	.L.str4, %r14
	leaq	.L.str19, %r15
	leaq	.L.str47, %r12
	movl	$0, %ebp
	movl	$1, %r13d
	movq	%rcx, 288(%rsp)         # 8-byte Spill
	movabsq	$19134, %rcx            # imm = 0x4ABE
	movq	%rcx, 280(%rsp)         # 8-byte Spill
	movabsq	$32, %rcx
	movq	%rcx, 272(%rsp)         # 8-byte Spill
	leaq	.L.str45, %rcx
	movq	%rcx, 264(%rsp)         # 8-byte Spill
	leaq	.L.str9, %rcx
	movq	%rcx, 256(%rsp)         # 8-byte Spill
	movabsq	$46, %rcx
	movq	%rcx, 248(%rsp)         # 8-byte Spill
	movabsq	$64, %rcx
	movq	%rcx, 240(%rsp)         # 8-byte Spill
	leaq	.L.str18, %rcx
	movq	%rcx, 232(%rsp)         # 8-byte Spill
	movabsq	$33, %rcx
	movq	%rcx, 224(%rsp)         # 8-byte Spill
	leaq	.L.str17, %rcx
	movq	%rcx, 216(%rsp)         # 8-byte Spill
	leaq	.L.str7, %rcx
	movq	%rcx, 208(%rsp)         # 8-byte Spill
	movabsq	$8, %rcx
	movq	%rcx, 200(%rsp)         # 8-byte Spill
	leaq	.L.str44, %rcx
.Ltmp34:
	.loc	1 16 0                  # feature_extraction.c:16:0
	movl	%eax, %eax
                                        # kill: RAX<def> EAX<kill>
	movq	%rax, 192(%rsp)         # 8-byte Spill
	movq	280(%rsp), %rax         # 8-byte Reload
	movq	%rdi, 184(%rsp)         # 8-byte Spill
	movq	%rax, %rdi
	movq	272(%rsp), %rax         # 8-byte Reload
	movq	%rsi, 176(%rsp)         # 8-byte Spill
	movq	%rax, %rsi
	movq	192(%rsp), %rax         # 8-byte Reload
	movq	%rdx, 168(%rsp)         # 8-byte Spill
	movq	%rax, %rdx
	movq	288(%rsp), %rax         # 8-byte Reload
	movq	%rcx, 160(%rsp)         # 8-byte Spill
	movq	%rax, %rcx
	movq	160(%rsp), %rax         # 8-byte Reload
	movq	%r8, 152(%rsp)          # 8-byte Spill
	movq	%rax, %r8
	movq	176(%rsp), %rax         # 8-byte Reload
	movq	%r9, 144(%rsp)          # 8-byte Spill
	movq	%rax, %r9
	movq	184(%rsp), %rax         # 8-byte Reload
	movq	%rax, (%rsp)
	movl	%r13d, 140(%rsp)        # 4-byte Spill
	movq	%r15, 128(%rsp)         # 8-byte Spill
	movq	%r12, 120(%rsp)         # 8-byte Spill
	movl	%ebp, 116(%rsp)         # 4-byte Spill
	movq	%r14, 104(%rsp)         # 8-byte Spill
	movq	%rbx, 96(%rsp)          # 8-byte Spill
	movq	%r10, 88(%rsp)          # 8-byte Spill
	movq	%r11, 80(%rsp)          # 8-byte Spill
	callq	trace_logger_log_int
	movq	96(%rsp), %rdi          # 8-byte Reload
	movq	104(%rsp), %rsi         # 8-byte Reload
	movq	128(%rsp), %rdx         # 8-byte Reload
	movq	232(%rsp), %rcx         # 8-byte Reload
	movq	200(%rsp), %r8          # 8-byte Reload
	movl	116(%rsp), %r9d         # 4-byte Reload
	movl	$1, (%rsp)
	callq	trace_logger_log0
	movq	152(%rsp), %rdi         # 8-byte Reload
	movq	240(%rsp), %rsi         # 8-byte Reload
	movq	288(%rsp), %rdx         # 8-byte Reload
	movq	176(%rsp), %rcx         # 8-byte Reload
	movq	208(%rsp), %r8          # 8-byte Reload
	movq	176(%rsp), %r9          # 8-byte Reload
	movq	184(%rsp), %rax         # 8-byte Reload
	movq	%rax, (%rsp)
	callq	trace_logger_log_int
	movq	288(%rsp), %rdi         # 8-byte Reload
	movq	240(%rsp), %rsi         # 8-byte Reload
	movq	1560(%rsp), %rdx        # 8-byte Reload
	movq	288(%rsp), %rcx         # 8-byte Reload
	movq	216(%rsp), %r8          # 8-byte Reload
	movq	176(%rsp), %r9          # 8-byte Reload
	movq	184(%rsp), %rax         # 8-byte Reload
	movq	%rax, (%rsp)
	callq	trace_logger_log_int
	movq	1560(%rsp), %rax        # 8-byte Reload
	addq	$1, %rax
	movq	280(%rsp), %rdi         # 8-byte Reload
	movq	240(%rsp), %rsi         # 8-byte Reload
	movq	%rax, %rdx
	movq	288(%rsp), %rcx         # 8-byte Reload
	movq	232(%rsp), %r8          # 8-byte Reload
	movq	176(%rsp), %r9          # 8-byte Reload
	movq	184(%rsp), %r10         # 8-byte Reload
	movq	%r10, (%rsp)
	movq	%rax, 72(%rsp)          # 8-byte Spill
	callq	trace_logger_log_int
	movq	96(%rsp), %rdi          # 8-byte Reload
	movq	104(%rsp), %rsi         # 8-byte Reload
	movq	128(%rsp), %rdx         # 8-byte Reload
	movq	264(%rsp), %rcx         # 8-byte Reload
	movq	224(%rsp), %r8          # 8-byte Reload
	movl	116(%rsp), %r9d         # 4-byte Reload
	movl	$1, (%rsp)
	callq	trace_logger_log0
	movq	288(%rsp), %rdi         # 8-byte Reload
	movq	240(%rsp), %rsi         # 8-byte Reload
	movq	72(%rsp), %rdx          # 8-byte Reload
	movq	288(%rsp), %rcx         # 8-byte Reload
	movq	232(%rsp), %r8          # 8-byte Reload
	movq	176(%rsp), %r9          # 8-byte Reload
	movq	184(%rsp), %rax         # 8-byte Reload
	movq	%rax, (%rsp)
	callq	trace_logger_log_int
	movq	72(%rsp), %rax          # 8-byte Reload
	movl	%eax, %ebp
	movl	%ebp, %r13d
	movl	%r13d, %edx
	movq	280(%rsp), %rdi         # 8-byte Reload
	movq	272(%rsp), %rsi         # 8-byte Reload
	movq	288(%rsp), %rcx         # 8-byte Reload
	movq	264(%rsp), %r8          # 8-byte Reload
	movq	176(%rsp), %r9          # 8-byte Reload
	movq	184(%rsp), %r10         # 8-byte Reload
	movq	%r10, (%rsp)
	movl	%ebp, 68(%rsp)          # 4-byte Spill
	callq	trace_logger_log_int
	movq	96(%rsp), %rdi          # 8-byte Reload
	movq	104(%rsp), %rsi         # 8-byte Reload
	movq	128(%rsp), %rdx         # 8-byte Reload
	movq	168(%rsp), %rcx         # 8-byte Reload
	movq	248(%rsp), %r8          # 8-byte Reload
	movl	116(%rsp), %r9d         # 4-byte Reload
	movl	$1, (%rsp)
	callq	trace_logger_log0
	movl	1932(%rsp), %r9d        # 4-byte Reload
	movl	%r9d, %ebp
	movl	%ebp, %edx
	movq	152(%rsp), %rdi         # 8-byte Reload
	movq	272(%rsp), %rsi         # 8-byte Reload
	movq	288(%rsp), %rcx         # 8-byte Reload
	movq	256(%rsp), %r8          # 8-byte Reload
	movq	176(%rsp), %r9          # 8-byte Reload
	movq	184(%rsp), %rax         # 8-byte Reload
	movq	%rax, (%rsp)
	callq	trace_logger_log_int
	movl	68(%rsp), %ebp          # 4-byte Reload
	movl	%ebp, %r13d
	movl	%r13d, %edx
	movq	288(%rsp), %rdi         # 8-byte Reload
	movq	272(%rsp), %rsi         # 8-byte Reload
	movq	288(%rsp), %rcx         # 8-byte Reload
	movq	264(%rsp), %r8          # 8-byte Reload
	movq	176(%rsp), %r9          # 8-byte Reload
	movq	184(%rsp), %rax         # 8-byte Reload
	movq	%rax, (%rsp)
	callq	trace_logger_log_int
	movl	68(%rsp), %ebp          # 4-byte Reload
	movl	1932(%rsp), %r13d       # 4-byte Reload
	cmpl	%r13d, %ebp
	sete	%al
	movb	%al, %cl
	andb	$1, %cl
	movzbl	%cl, %ecx
	movl	%ecx, %edx
	movq	280(%rsp), %rdi         # 8-byte Reload
	movq	288(%rsp), %rsi         # 8-byte Reload
	movq	288(%rsp), %rcx         # 8-byte Reload
	movq	168(%rsp), %r8          # 8-byte Reload
	movq	176(%rsp), %r9          # 8-byte Reload
	movq	184(%rsp), %r10         # 8-byte Reload
	movq	%r10, (%rsp)
	movb	%al, 67(%rsp)           # 1-byte Spill
	callq	trace_logger_log_int
	movq	96(%rsp), %rdi          # 8-byte Reload
	movq	104(%rsp), %rsi         # 8-byte Reload
	movq	128(%rsp), %rdx         # 8-byte Reload
	movq	120(%rsp), %rcx         # 8-byte Reload
	movq	152(%rsp), %r8          # 8-byte Reload
	movl	116(%rsp), %r9d         # 4-byte Reload
	movl	$1, (%rsp)
	callq	trace_logger_log0
	movq	88(%rsp), %rdi          # 8-byte Reload
	movq	176(%rsp), %rsi         # 8-byte Reload
	movq	176(%rsp), %rdx         # 8-byte Reload
	movq	288(%rsp), %rcx         # 8-byte Reload
	movq	80(%rsp), %r8           # 8-byte Reload
	movq	176(%rsp), %r9          # 8-byte Reload
	movq	184(%rsp), %r10         # 8-byte Reload
	movq	%r10, (%rsp)
	callq	trace_logger_log_int
	movq	152(%rsp), %rdi         # 8-byte Reload
	movq	176(%rsp), %rsi         # 8-byte Reload
	movq	176(%rsp), %rdx         # 8-byte Reload
	movq	288(%rsp), %rcx         # 8-byte Reload
	movq	144(%rsp), %r8          # 8-byte Reload
	movq	176(%rsp), %r9          # 8-byte Reload
	movq	184(%rsp), %r10         # 8-byte Reload
	movq	%r10, (%rsp)
	callq	trace_logger_log_int
	movb	67(%rsp), %al           # 1-byte Reload
	andb	$1, %al
	movzbl	%al, %ebp
	movl	%ebp, %edx
	movq	288(%rsp), %rdi         # 8-byte Reload
	movq	288(%rsp), %rsi         # 8-byte Reload
	movq	288(%rsp), %rcx         # 8-byte Reload
	movq	168(%rsp), %r8          # 8-byte Reload
	movq	176(%rsp), %r9          # 8-byte Reload
	movq	184(%rsp), %r10         # 8-byte Reload
	movq	%r10, (%rsp)
	callq	trace_logger_log_int
	movb	67(%rsp), %al           # 1-byte Reload
	testb	$1, %al
	movq	72(%rsp), %rcx          # 8-byte Reload
	movq	%rcx, 1568(%rsp)        # 8-byte Spill
	jne	.LBB0_6
	jmp	.LBB0_2
.Ltmp35:
.LBB0_6:                                # %._crit_edge3
	movl	$0, %eax
	movabsq	$1, %rcx
	movabsq	$32, %rsi
	movabsq	$0, %rdx
	leaq	.L.str7, %r8
	leaq	.L.str8, %rdi
	movabsq	$24, %r9
	leaq	.L.str4, %r10
	leaq	.L.str12, %r11
	leaq	.L.str48, %rbx
	movl	$1, %ebp
	.loc	1 24 0                  # feature_extraction.c:24:0
	movq	%rdi, 56(%rsp)          # 8-byte Spill
	movq	%r9, %rdi
	movq	%rsi, 48(%rsp)          # 8-byte Spill
	movq	%r10, %rsi
	movq	%rdx, 40(%rsp)          # 8-byte Spill
	movq	%r11, %rdx
	movq	%rcx, 32(%rsp)          # 8-byte Spill
	movq	%rbx, %rcx
	movq	32(%rsp), %r9           # 8-byte Reload
	movq	%r8, 24(%rsp)           # 8-byte Spill
	movq	%r9, %r8
	movl	%eax, %r9d
	movl	$1, (%rsp)
	movl	%eax, 20(%rsp)          # 4-byte Spill
	movl	%ebp, 16(%rsp)          # 4-byte Spill
	callq	trace_logger_log0
	movq	32(%rsp), %rdi          # 8-byte Reload
	movq	48(%rsp), %rsi          # 8-byte Reload
	movq	40(%rsp), %rdx          # 8-byte Reload
	movq	40(%rsp), %rcx          # 8-byte Reload
	movq	24(%rsp), %r8           # 8-byte Reload
	movq	40(%rsp), %r9           # 8-byte Reload
	movq	56(%rsp), %r10          # 8-byte Reload
	movq	%r10, (%rsp)
	callq	trace_logger_log_int
	movl	20(%rsp), %eax          # 4-byte Reload
	addq	$1944, %rsp             # imm = 0x798
	popq	%rbx
	popq	%r12
	popq	%r13
	popq	%r14
	popq	%r15
	popq	%rbp
	ret
.Ltmp36:
.Ltmp37:
	.size	test_stores, .Ltmp37-test_stores
.Lfunc_end0:
	.cfi_endproc

	.section	.rodata.cst8,"aM",@progbits,8
	.align	8
.LCPI1_0:
	.quad	4631811479262199808     # double 47
.LCPI1_1:
	.quad	4631670741773844480     # double 46
	.text
	.globl	process_data
	.align	16, 0x90
	.type	process_data,@function
process_data:                           # @process_data
	.cfi_startproc
.Lfunc_begin1:
	.loc	1 28 0                  # feature_extraction.c:28:0
# BB#0:
	pushq	%rbp
.Ltmp41:
	.cfi_def_cfa_offset 16
.Ltmp42:
	.cfi_offset %rbp, -16
	movq	%rsp, %rbp
.Ltmp43:
	.cfi_def_cfa_register %rbp
	pushq	%r15
	pushq	%r14
	pushq	%r13
	pushq	%r12
	pushq	%rbx
	subq	$22792, %rsp            # imm = 0x5908
.Ltmp44:
	.cfi_offset %rbx, -56
.Ltmp45:
	.cfi_offset %r12, -48
.Ltmp46:
	.cfi_offset %r13, -40
.Ltmp47:
	.cfi_offset %r14, -32
.Ltmp48:
	.cfi_offset %r15, -24
	movabsq	$1, %rax
	movabsq	$64, %r9
	leaq	.L.str24, %r10
	movabsq	$0, %r11
	leaq	.L.str8, %rbx
	movabsq	$2, %r14
	leaq	malloc, %r15
	leaq	.L.str51, %r12
	movabsq	$34, %r13
	movq	%rax, -48(%rbp)         # 8-byte Spill
	leaq	.L.str50, %rax
	movq	%rax, -56(%rbp)         # 8-byte Spill
	leaq	.L.str5, %rax
	movq	%rax, -64(%rbp)         # 8-byte Spill
	leaq	.L.str25, %rax
	movq	%rax, -72(%rbp)         # 8-byte Spill
	movabsq	$49, %rax
	movl	%ecx, -76(%rbp)         # 4-byte Spill
	movl	$1, %ecx
	movq	%rax, -88(%rbp)         # 8-byte Spill
	movabsq	$19134, %rax            # imm = 0x4ABE
	movq	%rax, -96(%rbp)         # 8-byte Spill
	leaq	.L.str13, %rax
	movq	%rax, -104(%rbp)        # 8-byte Spill
	leaq	.L.str20, %rax
	movq	%rax, -112(%rbp)        # 8-byte Spill
	movabsq	$12, %rax
	movq	%rax, -120(%rbp)        # 8-byte Spill
	movabsq	$32, %rax
	movq	%rax, -128(%rbp)        # 8-byte Spill
	leaq	.L.str9, %rax
	movq	%rax, -136(%rbp)        # 8-byte Spill
	movabsq	$35, %rax
	movq	%rax, -144(%rbp)        # 8-byte Spill
	leaq	.L.str6, %rax
	movq	%rax, -152(%rbp)        # 8-byte Spill
	movabsq	$3, %rax
	movq	%rax, -160(%rbp)        # 8-byte Spill
	leaq	.L.str7, %rax
	movq	%rax, -168(%rbp)        # 8-byte Spill
	movabsq	$20, %rax
	movq	%rax, -176(%rbp)        # 8-byte Spill
	leaq	.L.str14, %rax
	movq	%rax, -184(%rbp)        # 8-byte Spill
	movabsq	$5, %rax
	movq	%rax, -192(%rbp)        # 8-byte Spill
	leaq	.L.str88, %rax
	movq	%rax, -200(%rbp)        # 8-byte Spill
	movabsq	$4, %rax
	movq	%rax, -208(%rbp)        # 8-byte Spill
	leaq	.L.str35, %rax
	movq	%rax, -216(%rbp)        # 8-byte Spill
	leaq	.L.str49, %rax
	.loc	1 28 0 prologue_end     # feature_extraction.c:28:0
.Ltmp49:
	movq	%rax, -224(%rbp)        # 8-byte Spill
	movq	-56(%rbp), %rax         # 8-byte Reload
	movq	%rdi, -232(%rbp)        # 8-byte Spill
	movq	%rax, %rdi
	movq	-192(%rbp), %rax        # 8-byte Reload
	movq	%rsi, -240(%rbp)        # 8-byte Spill
	movq	%rax, %rsi
	movl	%ecx, -244(%rbp)        # 4-byte Spill
	movl	%edx, -248(%rbp)        # 4-byte Spill
	movq	%r12, -256(%rbp)        # 8-byte Spill
	movq	%r13, -264(%rbp)        # 8-byte Spill
	movq	%r8, -272(%rbp)         # 8-byte Spill
	movq	%r9, -280(%rbp)         # 8-byte Spill
	movq	%r10, -288(%rbp)        # 8-byte Spill
	movq	%r11, -296(%rbp)        # 8-byte Spill
	movq	%rbx, -304(%rbp)        # 8-byte Spill
	movq	%r14, -312(%rbp)        # 8-byte Spill
	movq	%r15, -320(%rbp)        # 8-byte Spill
	callq	trace_logger_log_entry
	subq	$16, %rsp
	movq	-48(%rbp), %rdi         # 8-byte Reload
	movq	-280(%rbp), %rsi        # 8-byte Reload
	movq	-232(%rbp), %rdx        # 8-byte Reload
	movq	-48(%rbp), %rcx         # 8-byte Reload
	movq	-224(%rbp), %r8         # 8-byte Reload
	movq	-296(%rbp), %r9         # 8-byte Reload
	movq	-304(%rbp), %rax        # 8-byte Reload
	movq	%rax, (%rsp)
	callq	trace_logger_log_ptr
	addq	$16, %rsp
	subq	$16, %rsp
	movq	-312(%rbp), %rdi        # 8-byte Reload
	movq	-280(%rbp), %rsi        # 8-byte Reload
	movq	-240(%rbp), %rdx        # 8-byte Reload
	movq	-48(%rbp), %rcx         # 8-byte Reload
	movq	-216(%rbp), %r8         # 8-byte Reload
	movq	-296(%rbp), %r9         # 8-byte Reload
	movq	-304(%rbp), %rax        # 8-byte Reload
	movq	%rax, (%rsp)
	callq	trace_logger_log_ptr
	addq	$16, %rsp
	movl	-248(%rbp), %esi        # 4-byte Reload
	movl	%esi, %esi
	movl	%esi, %edx
	subq	$16, %rsp
	movq	-160(%rbp), %rdi        # 8-byte Reload
	movq	-128(%rbp), %rsi        # 8-byte Reload
	movq	-48(%rbp), %rcx         # 8-byte Reload
	movq	-184(%rbp), %r8         # 8-byte Reload
	movq	-296(%rbp), %r9         # 8-byte Reload
	movq	-304(%rbp), %rax        # 8-byte Reload
	movq	%rax, (%rsp)
	callq	trace_logger_log_int
	addq	$16, %rsp
	movl	-76(%rbp), %esi         # 4-byte Reload
	movl	%esi, %esi
	movl	%esi, %edx
	subq	$16, %rsp
	movq	-208(%rbp), %rdi        # 8-byte Reload
	movq	-128(%rbp), %rsi        # 8-byte Reload
	movq	-48(%rbp), %rcx         # 8-byte Reload
	movq	-136(%rbp), %r8         # 8-byte Reload
	movq	-296(%rbp), %r9         # 8-byte Reload
	movq	-304(%rbp), %rax        # 8-byte Reload
	movq	%rax, (%rsp)
	callq	trace_logger_log_int
	addq	$16, %rsp
	subq	$16, %rsp
	movq	-192(%rbp), %rdi        # 8-byte Reload
	movq	-280(%rbp), %rsi        # 8-byte Reload
	movq	-272(%rbp), %rdx        # 8-byte Reload
	movq	-48(%rbp), %rcx         # 8-byte Reload
	movq	-200(%rbp), %r8         # 8-byte Reload
	movq	-296(%rbp), %r9         # 8-byte Reload
	movq	-304(%rbp), %rax        # 8-byte Reload
	movq	%rax, (%rsp)
	callq	trace_logger_log_ptr
	addq	$16, %rsp
	#DEBUG_VALUE: process_data:time_data <- [RBP+-232]
	#DEBUG_VALUE: process_data:freq_data <- [RBP+-240]
	#DEBUG_VALUE: process_data:n_samples <- [RBP+-248]
	#DEBUG_VALUE: process_data:n_channels <- [RBP+-76]
	#DEBUG_VALUE: process_data:cfg <- [RBP+-272]
	.loc	1 34 0                  # feature_extraction.c:34:0
	subq	$16, %rsp
	movq	-264(%rbp), %rdi        # 8-byte Reload
	movq	-56(%rbp), %rsi         # 8-byte Reload
	movq	-64(%rbp), %rdx         # 8-byte Reload
	movq	-152(%rbp), %rcx        # 8-byte Reload
	movq	-144(%rbp), %r8         # 8-byte Reload
	movl	-244(%rbp), %r9d        # 4-byte Reload
	movl	$1, (%rsp)
	callq	trace_logger_log0
	addq	$16, %rsp
	movl	-248(%rbp), %r9d        # 4-byte Reload
	movl	%r9d, %esi
	movl	%esi, %edx
	subq	$16, %rsp
	movq	-48(%rbp), %rdi         # 8-byte Reload
	movq	-128(%rbp), %rsi        # 8-byte Reload
	movq	-48(%rbp), %rcx         # 8-byte Reload
	movq	-184(%rbp), %r8         # 8-byte Reload
	movq	-296(%rbp), %r9         # 8-byte Reload
	movq	-304(%rbp), %rax        # 8-byte Reload
	movq	%rax, (%rsp)
	callq	trace_logger_log_int
	addq	$16, %rsp
	movl	-248(%rbp), %esi        # 4-byte Reload
	movslq	%esi, %rax
	subq	$16, %rsp
	movq	-96(%rbp), %rdi         # 8-byte Reload
	movq	-280(%rbp), %rsi        # 8-byte Reload
	movq	%rax, %rdx
	movq	-48(%rbp), %rcx         # 8-byte Reload
	movq	-152(%rbp), %r8         # 8-byte Reload
	movq	-296(%rbp), %r9         # 8-byte Reload
	movq	-304(%rbp), %r10        # 8-byte Reload
	movq	%r10, (%rsp)
	movq	%rax, -328(%rbp)        # 8-byte Spill
	callq	trace_logger_log_int
	addq	$16, %rsp
	subq	$16, %rsp
	movq	-264(%rbp), %rdi        # 8-byte Reload
	movq	-56(%rbp), %rsi         # 8-byte Reload
	movq	-64(%rbp), %rdx         # 8-byte Reload
	movq	-104(%rbp), %rcx        # 8-byte Reload
	movq	-176(%rbp), %r8         # 8-byte Reload
	movl	-244(%rbp), %r9d        # 4-byte Reload
	movl	$1, (%rsp)
	callq	trace_logger_log0
	addq	$16, %rsp
	subq	$16, %rsp
	movq	-312(%rbp), %rdi        # 8-byte Reload
	movq	-280(%rbp), %rsi        # 8-byte Reload
	movq	-160(%rbp), %rdx        # 8-byte Reload
	movq	-296(%rbp), %rcx        # 8-byte Reload
	movq	-168(%rbp), %r8         # 8-byte Reload
	movq	-296(%rbp), %r9         # 8-byte Reload
	movq	-304(%rbp), %rax        # 8-byte Reload
	movq	%rax, (%rsp)
	callq	trace_logger_log_int
	addq	$16, %rsp
	subq	$16, %rsp
	movq	-48(%rbp), %rdi         # 8-byte Reload
	movq	-280(%rbp), %rsi        # 8-byte Reload
	movq	-328(%rbp), %rdx        # 8-byte Reload
	movq	-48(%rbp), %rcx         # 8-byte Reload
	movq	-152(%rbp), %r8         # 8-byte Reload
	movq	-296(%rbp), %r9         # 8-byte Reload
	movq	-304(%rbp), %rax        # 8-byte Reload
	movq	%rax, (%rsp)
	callq	trace_logger_log_int
	addq	$16, %rsp
	movq	-328(%rbp), %rax        # 8-byte Reload
	shlq	$3, %rax
	subq	$16, %rsp
	movq	-96(%rbp), %rdi         # 8-byte Reload
	movq	-280(%rbp), %rsi        # 8-byte Reload
	movq	%rax, %rdx
	movq	-48(%rbp), %rcx         # 8-byte Reload
	movq	-104(%rbp), %r8         # 8-byte Reload
	movq	-296(%rbp), %r9         # 8-byte Reload
	movq	-304(%rbp), %r10        # 8-byte Reload
	movq	%r10, (%rsp)
	movq	%rax, -336(%rbp)        # 8-byte Spill
	callq	trace_logger_log_int
	addq	$16, %rsp
	subq	$16, %rsp
	movq	-264(%rbp), %rdi        # 8-byte Reload
	movq	-56(%rbp), %rsi         # 8-byte Reload
	movq	-64(%rbp), %rdx         # 8-byte Reload
	movq	-112(%rbp), %rcx        # 8-byte Reload
	movq	-144(%rbp), %r8         # 8-byte Reload
	movl	-244(%rbp), %r9d        # 4-byte Reload
	movl	$1, (%rsp)
	callq	trace_logger_log0
	addq	$16, %rsp
	movl	-76(%rbp), %r9d         # 4-byte Reload
	movl	%r9d, %esi
	movl	%esi, %edx
	subq	$16, %rsp
	movq	-48(%rbp), %rdi         # 8-byte Reload
	movq	-128(%rbp), %rsi        # 8-byte Reload
	movq	-48(%rbp), %rcx         # 8-byte Reload
	movq	-136(%rbp), %r8         # 8-byte Reload
	movq	-296(%rbp), %r9         # 8-byte Reload
	movq	-304(%rbp), %rax        # 8-byte Reload
	movq	%rax, (%rsp)
	callq	trace_logger_log_int
	addq	$16, %rsp
	movl	-76(%rbp), %esi         # 4-byte Reload
	movslq	%esi, %rax
	subq	$16, %rsp
	movq	-96(%rbp), %rdi         # 8-byte Reload
	movq	-280(%rbp), %rsi        # 8-byte Reload
	movq	%rax, %rdx
	movq	-48(%rbp), %rcx         # 8-byte Reload
	movq	-112(%rbp), %r8         # 8-byte Reload
	movq	-296(%rbp), %r9         # 8-byte Reload
	movq	-304(%rbp), %r10        # 8-byte Reload
	movq	%r10, (%rsp)
	movq	%rax, -344(%rbp)        # 8-byte Spill
	callq	trace_logger_log_int
	addq	$16, %rsp
	subq	$16, %rsp
	movq	-264(%rbp), %rdi        # 8-byte Reload
	movq	-56(%rbp), %rsi         # 8-byte Reload
	movq	-64(%rbp), %rdx         # 8-byte Reload
	movq	-288(%rbp), %rcx        # 8-byte Reload
	movq	-120(%rbp), %r8         # 8-byte Reload
	movl	-244(%rbp), %r9d        # 4-byte Reload
	movl	$1, (%rsp)
	callq	trace_logger_log0
	addq	$16, %rsp
	subq	$16, %rsp
	movq	-312(%rbp), %rdi        # 8-byte Reload
	movq	-280(%rbp), %rsi        # 8-byte Reload
	movq	-344(%rbp), %rdx        # 8-byte Reload
	movq	-48(%rbp), %rcx         # 8-byte Reload
	movq	-112(%rbp), %r8         # 8-byte Reload
	movq	-296(%rbp), %r9         # 8-byte Reload
	movq	-304(%rbp), %rax        # 8-byte Reload
	movq	%rax, (%rsp)
	callq	trace_logger_log_int
	addq	$16, %rsp
	subq	$16, %rsp
	movq	-48(%rbp), %rdi         # 8-byte Reload
	movq	-280(%rbp), %rsi        # 8-byte Reload
	movq	-336(%rbp), %rdx        # 8-byte Reload
	movq	-48(%rbp), %rcx         # 8-byte Reload
	movq	-104(%rbp), %r8         # 8-byte Reload
	movq	-296(%rbp), %r9         # 8-byte Reload
	movq	-304(%rbp), %rax        # 8-byte Reload
	movq	%rax, (%rsp)
	callq	trace_logger_log_int
	addq	$16, %rsp
	movq	-336(%rbp), %rax        # 8-byte Reload
	movq	-344(%rbp), %rcx        # 8-byte Reload
	imulq	%rcx, %rax
	subq	$16, %rsp
	movq	-96(%rbp), %rdi         # 8-byte Reload
	movq	-280(%rbp), %rsi        # 8-byte Reload
	movq	%rax, %rdx
	movq	-48(%rbp), %rcx         # 8-byte Reload
	movq	-288(%rbp), %r8         # 8-byte Reload
	movq	-296(%rbp), %r9         # 8-byte Reload
	movq	-304(%rbp), %r10        # 8-byte Reload
	movq	%r10, (%rsp)
	movq	%rax, -352(%rbp)        # 8-byte Spill
	callq	trace_logger_log_int
	addq	$16, %rsp
	subq	$16, %rsp
	movq	-264(%rbp), %rdi        # 8-byte Reload
	movq	-56(%rbp), %rsi         # 8-byte Reload
	movq	-64(%rbp), %rdx         # 8-byte Reload
	movq	-72(%rbp), %rcx         # 8-byte Reload
	movq	-88(%rbp), %r8          # 8-byte Reload
	movl	-244(%rbp), %r9d        # 4-byte Reload
	movl	$1, (%rsp)
	callq	trace_logger_log0
	addq	$16, %rsp
	subq	$16, %rsp
	movq	-312(%rbp), %rdi        # 8-byte Reload
	movq	-280(%rbp), %rsi        # 8-byte Reload
	movq	-320(%rbp), %rdx        # 8-byte Reload
	movq	-48(%rbp), %rcx         # 8-byte Reload
	movq	-256(%rbp), %r8         # 8-byte Reload
	movq	-296(%rbp), %r9         # 8-byte Reload
	movq	-304(%rbp), %rax        # 8-byte Reload
	movq	%rax, (%rsp)
	callq	trace_logger_log_ptr
	addq	$16, %rsp
	subq	$16, %rsp
	movq	-48(%rbp), %rdi         # 8-byte Reload
	movq	-280(%rbp), %rsi        # 8-byte Reload
	movq	-352(%rbp), %rdx        # 8-byte Reload
	movq	-48(%rbp), %rcx         # 8-byte Reload
	movq	-288(%rbp), %r8         # 8-byte Reload
	movq	-296(%rbp), %r9         # 8-byte Reload
	movq	-304(%rbp), %rax        # 8-byte Reload
	movq	%rax, (%rsp)
	callq	trace_logger_log_int
	addq	$16, %rsp
	movq	-352(%rbp), %rdi        # 8-byte Reload
	callq	malloc
	movabsq	$1, %rcx
	movabsq	$64, %rdx
	leaq	.L.str24, %r8
	movabsq	$0, %rsi
	leaq	.L.str8, %rdi
	movabsq	$2, %r9
	leaq	malloc, %r10
	leaq	.L.str51, %r11
	movabsq	$35, %rbx
	leaq	.L.str50, %r14
	leaq	.L.str5, %r15
	leaq	.L.str52, %r12
	movabsq	$49, %r13
	movq	%rsi, -360(%rbp)        # 8-byte Spill
	movl	$1, %esi
	movq	%rax, -368(%rbp)        # 8-byte Spill
	movabsq	$19134, %rax            # imm = 0x4ABE
	movq	%rax, -376(%rbp)        # 8-byte Spill
	leaq	.L.str26, %rax
	movq	%rax, -384(%rbp)        # 8-byte Spill
	leaq	.L.str25, %rax
	movq	%rax, -392(%rbp)        # 8-byte Spill
	movabsq	$34, %rax
	movq	%rax, -400(%rbp)        # 8-byte Spill
	movabsq	$44, %rax
	subq	$16, %rsp
	movq	%rax, -408(%rbp)        # 8-byte Spill
	movq	-376(%rbp), %rax        # 8-byte Reload
	movq	%rdi, -416(%rbp)        # 8-byte Spill
	movq	%rax, %rdi
	movl	%esi, -420(%rbp)        # 4-byte Spill
	movq	%rdx, %rsi
	movq	-368(%rbp), %rax        # 8-byte Reload
	movq	%rdx, -432(%rbp)        # 8-byte Spill
	movq	%rax, %rdx
	movq	%rcx, -440(%rbp)        # 8-byte Spill
	movq	-392(%rbp), %rax        # 8-byte Reload
	movq	%r8, -448(%rbp)         # 8-byte Spill
	movq	%rax, %r8
	movq	-360(%rbp), %rax        # 8-byte Reload
	movq	%r9, -456(%rbp)         # 8-byte Spill
	movq	%rax, %r9
	movq	-416(%rbp), %rax        # 8-byte Reload
	movq	%rax, (%rsp)
	movq	%r14, -464(%rbp)        # 8-byte Spill
	movq	%r15, -472(%rbp)        # 8-byte Spill
	movq	%rbx, -480(%rbp)        # 8-byte Spill
	movq	%r12, -488(%rbp)        # 8-byte Spill
	movq	%r13, -496(%rbp)        # 8-byte Spill
	movq	%r11, -504(%rbp)        # 8-byte Spill
	movq	%r10, -512(%rbp)        # 8-byte Spill
	callq	trace_logger_log_ptr
	addq	$16, %rsp
	subq	$16, %rsp
	movq	-400(%rbp), %rdi        # 8-byte Reload
	movq	-464(%rbp), %rsi        # 8-byte Reload
	movq	-472(%rbp), %rdx        # 8-byte Reload
	movq	-384(%rbp), %rcx        # 8-byte Reload
	movq	-408(%rbp), %r8         # 8-byte Reload
	movl	-420(%rbp), %r9d        # 4-byte Reload
	movl	$1, (%rsp)
	callq	trace_logger_log0
	addq	$16, %rsp
	subq	$16, %rsp
	movq	-440(%rbp), %rdi        # 8-byte Reload
	movq	-432(%rbp), %rsi        # 8-byte Reload
	movq	-368(%rbp), %rdx        # 8-byte Reload
	movq	-440(%rbp), %rcx        # 8-byte Reload
	movq	-392(%rbp), %r8         # 8-byte Reload
	movq	-360(%rbp), %r9         # 8-byte Reload
	movq	-416(%rbp), %rax        # 8-byte Reload
	movq	%rax, (%rsp)
	callq	trace_logger_log_ptr
	addq	$16, %rsp
	movq	-368(%rbp), %rax        # 8-byte Reload
	subq	$16, %rsp
	movq	-376(%rbp), %rdi        # 8-byte Reload
	movq	-432(%rbp), %rsi        # 8-byte Reload
	movq	%rax, %rdx
	movq	-440(%rbp), %rcx        # 8-byte Reload
	movq	-384(%rbp), %r8         # 8-byte Reload
	movq	-360(%rbp), %r9         # 8-byte Reload
	movq	-416(%rbp), %r10        # 8-byte Reload
	movq	%r10, (%rsp)
	movq	%rax, -520(%rbp)        # 8-byte Spill
	callq	trace_logger_log_ptr
	addq	$16, %rsp
.Ltmp50:
	#DEBUG_VALUE: process_data:in <- [RBP+-520]
	.loc	1 35 0                  # feature_extraction.c:35:0
	subq	$16, %rsp
	movq	-480(%rbp), %rdi        # 8-byte Reload
	movq	-464(%rbp), %rsi        # 8-byte Reload
	movq	-472(%rbp), %rdx        # 8-byte Reload
	movq	-488(%rbp), %rcx        # 8-byte Reload
	movq	-496(%rbp), %r8         # 8-byte Reload
	movl	-420(%rbp), %r9d        # 4-byte Reload
	movl	$1, (%rsp)
	callq	trace_logger_log0
	addq	$16, %rsp
	subq	$16, %rsp
	movq	-456(%rbp), %rdi        # 8-byte Reload
	movq	-432(%rbp), %rsi        # 8-byte Reload
	movq	-512(%rbp), %rdx        # 8-byte Reload
	movq	-440(%rbp), %rcx        # 8-byte Reload
	movq	-504(%rbp), %r8         # 8-byte Reload
	movq	-360(%rbp), %r9         # 8-byte Reload
	movq	-416(%rbp), %rax        # 8-byte Reload
	movq	%rax, (%rsp)
	callq	trace_logger_log_ptr
	addq	$16, %rsp
	subq	$16, %rsp
	movq	-440(%rbp), %rdi        # 8-byte Reload
	movq	-432(%rbp), %rsi        # 8-byte Reload
	movq	-352(%rbp), %rdx        # 8-byte Reload
	movq	-440(%rbp), %rcx        # 8-byte Reload
	movq	-448(%rbp), %r8         # 8-byte Reload
	movq	-360(%rbp), %r9         # 8-byte Reload
	movq	-416(%rbp), %rax        # 8-byte Reload
	movq	%rax, (%rsp)
	callq	trace_logger_log_int
	addq	$16, %rsp
	movq	-352(%rbp), %rdi        # 8-byte Reload
	callq	malloc
	movabsq	$1, %rcx
	leaq	.L.str33, %rdx
	movabsq	$0, %rsi
	leaq	.L.str8, %rdi
	movabsq	$2, %r8
	leaq	.L.str55, %r9
	movabsq	$3, %r10
	leaq	.L.str54, %r11
	movabsq	$36, %rbx
	leaq	.L.str50, %r14
	leaq	.L.str5, %r15
	leaq	.L.str53, %r12
	movl	$1, %r13d
	movq	%rax, -528(%rbp)        # 8-byte Spill
	movabsq	$19134, %rax            # imm = 0x4ABE
	movq	%rax, -536(%rbp)        # 8-byte Spill
	movabsq	$32, %rax
	movq	%rax, -544(%rbp)        # 8-byte Spill
	leaq	.L.str9, %rax
	movq	%rax, -552(%rbp)        # 8-byte Spill
	leaq	.L.str7, %rax
	movq	%rax, -560(%rbp)        # 8-byte Spill
	movabsq	$46, %rax
	movq	%rax, -568(%rbp)        # 8-byte Spill
	movabsq	$64, %rax
	movq	%rax, -576(%rbp)        # 8-byte Spill
	leaq	.L.str31, %rax
	movq	%rax, -584(%rbp)        # 8-byte Spill
	leaq	.L.str52, %rax
	movq	%rax, -592(%rbp)        # 8-byte Spill
	movabsq	$35, %rax
	movq	%rax, -600(%rbp)        # 8-byte Spill
	movabsq	$44, %rax
	subq	$16, %rsp
	movq	%rax, -608(%rbp)        # 8-byte Spill
	movq	-536(%rbp), %rax        # 8-byte Reload
	movq	%rdi, -616(%rbp)        # 8-byte Spill
	movq	%rax, %rdi
	movq	-576(%rbp), %rax        # 8-byte Reload
	movq	%rsi, -624(%rbp)        # 8-byte Spill
	movq	%rax, %rsi
	movq	-528(%rbp), %rax        # 8-byte Reload
	movq	%rdx, -632(%rbp)        # 8-byte Spill
	movq	%rax, %rdx
	movq	%rcx, -640(%rbp)        # 8-byte Spill
	movq	-592(%rbp), %rax        # 8-byte Reload
	movq	%r8, -648(%rbp)         # 8-byte Spill
	movq	%rax, %r8
	movq	-624(%rbp), %rax        # 8-byte Reload
	movq	%r9, -656(%rbp)         # 8-byte Spill
	movq	%rax, %r9
	movq	-616(%rbp), %rax        # 8-byte Reload
	movq	%rax, (%rsp)
	movq	%r14, -664(%rbp)        # 8-byte Spill
	movq	%r15, -672(%rbp)        # 8-byte Spill
	movq	%r12, -680(%rbp)        # 8-byte Spill
	movl	%r13d, -684(%rbp)       # 4-byte Spill
	movq	%rbx, -696(%rbp)        # 8-byte Spill
	movq	%r11, -704(%rbp)        # 8-byte Spill
	movq	%r10, -712(%rbp)        # 8-byte Spill
	callq	trace_logger_log_ptr
	addq	$16, %rsp
	subq	$16, %rsp
	movq	-600(%rbp), %rdi        # 8-byte Reload
	movq	-664(%rbp), %rsi        # 8-byte Reload
	movq	-672(%rbp), %rdx        # 8-byte Reload
	movq	-584(%rbp), %rcx        # 8-byte Reload
	movq	-608(%rbp), %r8         # 8-byte Reload
	movl	-684(%rbp), %r9d        # 4-byte Reload
	movl	$1, (%rsp)
	callq	trace_logger_log0
	addq	$16, %rsp
	subq	$16, %rsp
	movq	-640(%rbp), %rdi        # 8-byte Reload
	movq	-576(%rbp), %rsi        # 8-byte Reload
	movq	-528(%rbp), %rdx        # 8-byte Reload
	movq	-640(%rbp), %rcx        # 8-byte Reload
	movq	-592(%rbp), %r8         # 8-byte Reload
	movq	-624(%rbp), %r9         # 8-byte Reload
	movq	-616(%rbp), %rax        # 8-byte Reload
	movq	%rax, (%rsp)
	callq	trace_logger_log_ptr
	addq	$16, %rsp
	movq	-528(%rbp), %rax        # 8-byte Reload
	subq	$16, %rsp
	movq	-536(%rbp), %rdi        # 8-byte Reload
	movq	-576(%rbp), %rsi        # 8-byte Reload
	movq	%rax, %rdx
	movq	-640(%rbp), %rcx        # 8-byte Reload
	movq	-584(%rbp), %r8         # 8-byte Reload
	movq	-624(%rbp), %r9         # 8-byte Reload
	movq	-616(%rbp), %r10        # 8-byte Reload
	movq	%r10, (%rsp)
	movq	%rax, -720(%rbp)        # 8-byte Spill
	callq	trace_logger_log_ptr
	addq	$16, %rsp
.Ltmp51:
	#DEBUG_VALUE: process_data:out <- [RBP+-720]
	#DEBUG_VALUE: channel <- 0
	.loc	1 36 0                  # feature_extraction.c:36:0
	subq	$16, %rsp
	movq	-696(%rbp), %rdi        # 8-byte Reload
	movq	-664(%rbp), %rsi        # 8-byte Reload
	movq	-672(%rbp), %rdx        # 8-byte Reload
	movq	-632(%rbp), %rcx        # 8-byte Reload
	movq	-568(%rbp), %r8         # 8-byte Reload
	movl	-684(%rbp), %r9d        # 4-byte Reload
	movl	$1, (%rsp)
	callq	trace_logger_log0
	addq	$16, %rsp
	subq	$16, %rsp
	movq	-648(%rbp), %rdi        # 8-byte Reload
	movq	-544(%rbp), %rsi        # 8-byte Reload
	movq	-624(%rbp), %rdx        # 8-byte Reload
	movq	-624(%rbp), %rcx        # 8-byte Reload
	movq	-560(%rbp), %r8         # 8-byte Reload
	movq	-624(%rbp), %r9         # 8-byte Reload
	movq	-616(%rbp), %rax        # 8-byte Reload
	movq	%rax, (%rsp)
	callq	trace_logger_log_int
	addq	$16, %rsp
	movl	-76(%rbp), %r13d        # 4-byte Reload
	movl	%r13d, %esi
	movl	%esi, %edx
	subq	$16, %rsp
	movq	-640(%rbp), %rdi        # 8-byte Reload
	movq	-544(%rbp), %rsi        # 8-byte Reload
	movq	-640(%rbp), %rcx        # 8-byte Reload
	movq	-552(%rbp), %r8         # 8-byte Reload
	movq	-624(%rbp), %r9         # 8-byte Reload
	movq	-616(%rbp), %rax        # 8-byte Reload
	movq	%rax, (%rsp)
	callq	trace_logger_log_int
	addq	$16, %rsp
	movl	-76(%rbp), %r13d        # 4-byte Reload
	cmpl	$0, %r13d
	setg	%al
	movb	%al, %cl
	andb	$1, %cl
	movzbl	%cl, %ecx
	movl	%ecx, %edx
	subq	$16, %rsp
	movq	-536(%rbp), %rdi        # 8-byte Reload
	movq	-640(%rbp), %rsi        # 8-byte Reload
	movq	-640(%rbp), %rcx        # 8-byte Reload
	movq	-632(%rbp), %r8         # 8-byte Reload
	movq	-624(%rbp), %r9         # 8-byte Reload
	movq	-616(%rbp), %r10        # 8-byte Reload
	movq	%r10, (%rsp)
	movb	%al, -721(%rbp)         # 1-byte Spill
	callq	trace_logger_log_int
	addq	$16, %rsp
	subq	$16, %rsp
	movq	-696(%rbp), %rdi        # 8-byte Reload
	movq	-664(%rbp), %rsi        # 8-byte Reload
	movq	-672(%rbp), %rdx        # 8-byte Reload
	movq	-680(%rbp), %rcx        # 8-byte Reload
	movq	-648(%rbp), %r8         # 8-byte Reload
	movl	-684(%rbp), %r9d        # 4-byte Reload
	movl	$1, (%rsp)
	callq	trace_logger_log0
	addq	$16, %rsp
	subq	$16, %rsp
	movq	-712(%rbp), %rdi        # 8-byte Reload
	movq	-624(%rbp), %rsi        # 8-byte Reload
	movq	-624(%rbp), %rdx        # 8-byte Reload
	movq	-640(%rbp), %rcx        # 8-byte Reload
	movq	-704(%rbp), %r8         # 8-byte Reload
	movq	-624(%rbp), %r9         # 8-byte Reload
	movq	-616(%rbp), %r10        # 8-byte Reload
	movq	%r10, (%rsp)
	callq	trace_logger_log_int
	addq	$16, %rsp
	subq	$16, %rsp
	movq	-648(%rbp), %rdi        # 8-byte Reload
	movq	-624(%rbp), %rsi        # 8-byte Reload
	movq	-624(%rbp), %rdx        # 8-byte Reload
	movq	-640(%rbp), %rcx        # 8-byte Reload
	movq	-656(%rbp), %r8         # 8-byte Reload
	movq	-624(%rbp), %r9         # 8-byte Reload
	movq	-616(%rbp), %r10        # 8-byte Reload
	movq	%r10, (%rsp)
	callq	trace_logger_log_int
	addq	$16, %rsp
	movb	-721(%rbp), %al         # 1-byte Reload
	andb	$1, %al
	movzbl	%al, %r13d
	movl	%r13d, %edx
	subq	$16, %rsp
	movq	-640(%rbp), %rdi        # 8-byte Reload
	movq	-640(%rbp), %rsi        # 8-byte Reload
	movq	-640(%rbp), %rcx        # 8-byte Reload
	movq	-632(%rbp), %r8         # 8-byte Reload
	movq	-624(%rbp), %r9         # 8-byte Reload
	movq	-616(%rbp), %r10        # 8-byte Reload
	movq	%r10, (%rsp)
	callq	trace_logger_log_int
	addq	$16, %rsp
	movb	-721(%rbp), %al         # 1-byte Reload
	testb	$1, %al
	jne	.LBB1_1
	jmp	.LBB1_9
.Ltmp52:
.LBB1_1:                                # %.preheader110.lr.ph
	movabsq	$0, %rax
	movabsq	$1, %rcx
	leaq	.L.str57, %r8
	leaq	.L.str8, %rdx
	movabsq	$36, %rdi
	leaq	.L.str50, %rsi
	leaq	.L.str54, %r9
	leaq	.L.str56, %r10
	movabsq	$2, %r11
	movl	$1, %ebx
	movabsq	$19134, %r14            # imm = 0x4ABE
	leaq	.L.str36, %r15
	movabsq	$32, %r12
	leaq	.L.str14, %r13
	movq	%rax, -736(%rbp)        # 8-byte Spill
	leaq	.L.str7, %rax
	movq	%rax, -744(%rbp)        # 8-byte Spill
	movabsq	$46, %rax
	movq	%rax, -752(%rbp)        # 8-byte Spill
	leaq	.L.str34, %rax
	movq	%rax, -760(%rbp)        # 8-byte Spill
	movabsq	$38, %rax
	.loc	1 38 0                  # feature_extraction.c:38:0
.Ltmp53:
	subq	$16, %rsp
	movq	%rdi, -768(%rbp)        # 8-byte Spill
	movq	%rax, %rdi
	movq	%rsi, -776(%rbp)        # 8-byte Spill
	movq	%rdx, -784(%rbp)        # 8-byte Spill
	movq	%r9, %rdx
	movq	-760(%rbp), %rax        # 8-byte Reload
	movq	%rcx, -792(%rbp)        # 8-byte Spill
	movq	%rax, %rcx
	movq	-752(%rbp), %rax        # 8-byte Reload
	movq	%r8, -800(%rbp)         # 8-byte Spill
	movq	%rax, %r8
	movq	%r9, -808(%rbp)         # 8-byte Spill
	movl	%ebx, %r9d
	movl	$1, (%rsp)
	movq	%r13, -816(%rbp)        # 8-byte Spill
	movl	%ebx, -820(%rbp)        # 4-byte Spill
	movq	%r14, -832(%rbp)        # 8-byte Spill
	movq	%r12, -840(%rbp)        # 8-byte Spill
	movq	%r15, -848(%rbp)        # 8-byte Spill
	movq	%r11, -856(%rbp)        # 8-byte Spill
	movq	%r10, -864(%rbp)        # 8-byte Spill
	callq	trace_logger_log0
	addq	$16, %rsp
	subq	$16, %rsp
	movq	-856(%rbp), %rdi        # 8-byte Reload
	movq	-840(%rbp), %rsi        # 8-byte Reload
	movq	-736(%rbp), %rdx        # 8-byte Reload
	movq	-736(%rbp), %rcx        # 8-byte Reload
	movq	-744(%rbp), %r8         # 8-byte Reload
	movq	-736(%rbp), %r9         # 8-byte Reload
	movq	-784(%rbp), %rax        # 8-byte Reload
	movq	%rax, (%rsp)
	callq	trace_logger_log_int
	addq	$16, %rsp
	movl	-248(%rbp), %ebx        # 4-byte Reload
	movl	%ebx, %esi
	movl	%esi, %edx
	subq	$16, %rsp
	movq	-792(%rbp), %rdi        # 8-byte Reload
	movq	-840(%rbp), %rsi        # 8-byte Reload
	movq	-792(%rbp), %rcx        # 8-byte Reload
	movq	-816(%rbp), %r8         # 8-byte Reload
	movq	-736(%rbp), %r9         # 8-byte Reload
	movq	-784(%rbp), %rax        # 8-byte Reload
	movq	%rax, (%rsp)
	callq	trace_logger_log_int
	addq	$16, %rsp
	movl	-248(%rbp), %ebx        # 4-byte Reload
	cmpl	$0, %ebx
	setg	%al
.Ltmp54:
	.loc	1 46 0                  # feature_extraction.c:46:0
	movb	%al, %cl
	andb	$1, %cl
	movzbl	%cl, %ecx
	movl	%ecx, %edx
	subq	$16, %rsp
	movq	-832(%rbp), %rdi        # 8-byte Reload
	movq	-792(%rbp), %rsi        # 8-byte Reload
	movq	-792(%rbp), %rcx        # 8-byte Reload
	movq	-760(%rbp), %r8         # 8-byte Reload
	movq	-736(%rbp), %r9         # 8-byte Reload
	movq	-784(%rbp), %r10        # 8-byte Reload
	movq	%r10, (%rsp)
	movb	%al, -865(%rbp)         # 1-byte Spill
	callq	trace_logger_log_int
	addq	$16, %rsp
	subq	$16, %rsp
	movq	-752(%rbp), %rdi        # 8-byte Reload
	movq	-776(%rbp), %rsi        # 8-byte Reload
	movq	-808(%rbp), %rdx        # 8-byte Reload
	movq	-848(%rbp), %rcx        # 8-byte Reload
	movq	-752(%rbp), %r8         # 8-byte Reload
	movl	-820(%rbp), %r9d        # 4-byte Reload
	movl	$1, (%rsp)
	callq	trace_logger_log0
	addq	$16, %rsp
	subq	$16, %rsp
	movq	-856(%rbp), %rdi        # 8-byte Reload
	movq	-840(%rbp), %rsi        # 8-byte Reload
	movq	-736(%rbp), %rdx        # 8-byte Reload
	movq	-736(%rbp), %rcx        # 8-byte Reload
	movq	-744(%rbp), %r8         # 8-byte Reload
	movq	-736(%rbp), %r9         # 8-byte Reload
	movq	-784(%rbp), %r10        # 8-byte Reload
	movq	%r10, (%rsp)
	callq	trace_logger_log_int
	addq	$16, %rsp
	movl	-248(%rbp), %ebx        # 4-byte Reload
	movl	%ebx, %eax
	movl	%eax, %edx
	subq	$16, %rsp
	movq	-792(%rbp), %rdi        # 8-byte Reload
	movq	-840(%rbp), %rsi        # 8-byte Reload
	movq	-792(%rbp), %rcx        # 8-byte Reload
	movq	-816(%rbp), %r8         # 8-byte Reload
	movq	-736(%rbp), %r9         # 8-byte Reload
	movq	-784(%rbp), %r10        # 8-byte Reload
	movq	%r10, (%rsp)
	callq	trace_logger_log_int
	addq	$16, %rsp
	movl	-248(%rbp), %eax        # 4-byte Reload
	cmpl	$0, %eax
	setg	%al
.Ltmp55:
	.loc	1 36 0                  # feature_extraction.c:36:0
	movb	%al, %cl
	andb	$1, %cl
	movzbl	%cl, %ebx
	movl	%ebx, %edx
	subq	$16, %rsp
	movq	-832(%rbp), %rdi        # 8-byte Reload
	movq	-792(%rbp), %rsi        # 8-byte Reload
	movq	-792(%rbp), %rcx        # 8-byte Reload
	movq	-848(%rbp), %r8         # 8-byte Reload
	movq	-736(%rbp), %r9         # 8-byte Reload
	movq	-784(%rbp), %r10        # 8-byte Reload
	movq	%r10, (%rsp)
	movb	%al, -866(%rbp)         # 1-byte Spill
	callq	trace_logger_log_int
	addq	$16, %rsp
	subq	$16, %rsp
	movq	-768(%rbp), %rdi        # 8-byte Reload
	movq	-776(%rbp), %rsi        # 8-byte Reload
	movq	-808(%rbp), %rdx        # 8-byte Reload
	movq	-864(%rbp), %rcx        # 8-byte Reload
	movq	-856(%rbp), %r8         # 8-byte Reload
	movl	-820(%rbp), %r9d        # 4-byte Reload
	movl	$1, (%rsp)
	callq	trace_logger_log0
	addq	$16, %rsp
	subq	$16, %rsp
	movq	-792(%rbp), %rdi        # 8-byte Reload
	movq	-736(%rbp), %rsi        # 8-byte Reload
	movq	-736(%rbp), %rdx        # 8-byte Reload
	movq	-792(%rbp), %rcx        # 8-byte Reload
	movq	-800(%rbp), %r8         # 8-byte Reload
	movq	-736(%rbp), %r9         # 8-byte Reload
	movq	-784(%rbp), %r10        # 8-byte Reload
	movq	%r10, (%rsp)
	callq	trace_logger_log_int
	addq	$16, %rsp
	movq	-736(%rbp), %rcx        # 8-byte Reload
	movq	%rcx, -880(%rbp)        # 8-byte Spill
.LBB1_2:                                # %.preheader110
                                        # =>This Loop Header: Depth=1
                                        #     Child Loop BB1_4 Depth 2
                                        #     Child Loop BB1_7 Depth 2
	movq	-880(%rbp), %rax        # 8-byte Reload
	movabsq	$1, %rcx
	leaq	.L.str34, %r8
	movabsq	$0, %rdx
	leaq	.L.str8, %rsi
	movabsq	$2, %rdi
	leaq	.L.str63, %r9
	movabsq	$3, %r10
	leaq	.L.str62, %r11
	movabsq	$38, %rbx
	leaq	.L.str50, %r14
	leaq	.L.str57, %r15
	leaq	.L.str61, %r12
	movl	$1, %r13d
	movq	%rax, -888(%rbp)        # 8-byte Spill
	movabsq	$19134, %rax            # imm = 0x4ABE
	movq	%rax, -896(%rbp)        # 8-byte Spill
	movabsq	$32, %rax
	movq	%rax, -904(%rbp)        # 8-byte Spill
	leaq	.L.str38, %rax
	movq	%rax, -912(%rbp)        # 8-byte Spill
	leaq	.L.str37, %rax
	movq	%rax, -920(%rbp)        # 8-byte Spill
	leaq	.L.str14, %rax
	movq	%rax, -928(%rbp)        # 8-byte Spill
	movabsq	$40, %rax
	movq	%rax, -936(%rbp)        # 8-byte Spill
	movabsq	$12, %rax
	movq	%rax, -944(%rbp)        # 8-byte Spill
	movabsq	$64, %rax
	movq	%rax, -952(%rbp)        # 8-byte Spill
	leaq	.L.str58, %rax
	movq	%rax, -960(%rbp)        # 8-byte Spill
	movabsq	$33, %rax
	movq	%rax, -968(%rbp)        # 8-byte Spill
	leaq	.L.str54, %rax
	movq	%rax, -976(%rbp)        # 8-byte Spill
	leaq	.L.str7, %rax
	movq	%rax, -984(%rbp)        # 8-byte Spill
	leaq	.L.str59, %rax
	movq	%rax, -992(%rbp)        # 8-byte Spill
	leaq	.L.str60, %rax
	movq	%rax, -1000(%rbp)       # 8-byte Spill
	movabsq	$-1, %rax
	movq	%rax, -1008(%rbp)       # 8-byte Spill
	movabsq	$48, %rax
	.loc	1 40 0                  # feature_extraction.c:40:0
.Ltmp56:
	subq	$16, %rsp
	movq	%rax, -1016(%rbp)       # 8-byte Spill
	movq	-1008(%rbp), %rax       # 8-byte Reload
	movq	%rdi, -1024(%rbp)       # 8-byte Spill
	movq	%rax, %rdi
	movq	%rsi, -1032(%rbp)       # 8-byte Spill
	movq	%r14, %rsi
	movq	%rdx, -1040(%rbp)       # 8-byte Spill
	movq	%r15, %rdx
	movq	-960(%rbp), %rax        # 8-byte Reload
	movq	%rcx, -1048(%rbp)       # 8-byte Spill
	movq	%rax, %rcx
	movq	-1016(%rbp), %rax       # 8-byte Reload
	movq	%r8, -1056(%rbp)        # 8-byte Spill
	movq	%rax, %r8
	movq	%r9, -1064(%rbp)        # 8-byte Spill
	movl	%r13d, %r9d
	movl	$1, (%rsp)
	movq	%r14, -1072(%rbp)       # 8-byte Spill
	movq	%rbx, -1080(%rbp)       # 8-byte Spill
	movq	%r15, -1088(%rbp)       # 8-byte Spill
	movq	%r12, -1096(%rbp)       # 8-byte Spill
	movl	%r13d, -1100(%rbp)      # 4-byte Spill
	movq	%r11, -1112(%rbp)       # 8-byte Spill
	movq	%r10, -1120(%rbp)       # 8-byte Spill
	callq	trace_logger_log0
	addq	$16, %rsp
	subq	$16, %rsp
	movq	-1024(%rbp), %rdi       # 8-byte Reload
	movq	-952(%rbp), %rsi        # 8-byte Reload
	movq	-1040(%rbp), %rdx       # 8-byte Reload
	movq	-1048(%rbp), %rcx       # 8-byte Reload
	movq	-992(%rbp), %r8         # 8-byte Reload
	movq	-1048(%rbp), %r9        # 8-byte Reload
	movq	-1000(%rbp), %rax       # 8-byte Reload
	movq	%rax, (%rsp)
	callq	trace_logger_log_int
	addq	$16, %rsp
	subq	$16, %rsp
	movq	-1048(%rbp), %rdi       # 8-byte Reload
	movq	-952(%rbp), %rsi        # 8-byte Reload
	movq	-1040(%rbp), %rdx       # 8-byte Reload
	movq	-1040(%rbp), %rcx       # 8-byte Reload
	movq	-984(%rbp), %r8         # 8-byte Reload
	movq	-1048(%rbp), %r9        # 8-byte Reload
	movq	-976(%rbp), %rax        # 8-byte Reload
	movq	%rax, (%rsp)
	callq	trace_logger_log_int
	addq	$16, %rsp
	subq	$16, %rsp
	movq	-896(%rbp), %rdi        # 8-byte Reload
	movq	-952(%rbp), %rsi        # 8-byte Reload
	movq	-888(%rbp), %rdx        # 8-byte Reload
	movq	-1048(%rbp), %rcx       # 8-byte Reload
	movq	-960(%rbp), %r8         # 8-byte Reload
	movq	-1040(%rbp), %r9        # 8-byte Reload
	movq	-976(%rbp), %rax        # 8-byte Reload
	movq	%rax, (%rsp)
	callq	trace_logger_log_int
	addq	$16, %rsp
	subq	$16, %rsp
	movq	-936(%rbp), %rdi        # 8-byte Reload
	movq	-1072(%rbp), %rsi       # 8-byte Reload
	movq	-1088(%rbp), %rdx       # 8-byte Reload
	movq	-920(%rbp), %rcx        # 8-byte Reload
	movq	-968(%rbp), %r8         # 8-byte Reload
	movl	-1100(%rbp), %r9d       # 4-byte Reload
	movl	$1, (%rsp)
	callq	trace_logger_log0
	addq	$16, %rsp
	subq	$16, %rsp
	movq	-1048(%rbp), %rdi       # 8-byte Reload
	movq	-952(%rbp), %rsi        # 8-byte Reload
	movq	-888(%rbp), %rdx        # 8-byte Reload
	movq	-1048(%rbp), %rcx       # 8-byte Reload
	movq	-960(%rbp), %r8         # 8-byte Reload
	movq	-1040(%rbp), %r9        # 8-byte Reload
	movq	-1032(%rbp), %rax       # 8-byte Reload
	movq	%rax, (%rsp)
	callq	trace_logger_log_int
	addq	$16, %rsp
	movq	-888(%rbp), %rax        # 8-byte Reload
	movl	%eax, %r13d
	movl	%r13d, %esi
	movl	%esi, %edx
	subq	$16, %rsp
	movq	-896(%rbp), %rdi        # 8-byte Reload
	movq	-904(%rbp), %rsi        # 8-byte Reload
	movq	-1048(%rbp), %rcx       # 8-byte Reload
	movq	-920(%rbp), %r8         # 8-byte Reload
	movq	-1040(%rbp), %r9        # 8-byte Reload
	movq	-1032(%rbp), %r10       # 8-byte Reload
	movq	%r10, (%rsp)
	movl	%r13d, -1124(%rbp)      # 4-byte Spill
	callq	trace_logger_log_int
	addq	$16, %rsp
	subq	$16, %rsp
	movq	-936(%rbp), %rdi        # 8-byte Reload
	movq	-1072(%rbp), %rsi       # 8-byte Reload
	movq	-1088(%rbp), %rdx       # 8-byte Reload
	movq	-912(%rbp), %rcx        # 8-byte Reload
	movq	-944(%rbp), %r8         # 8-byte Reload
	movl	-1100(%rbp), %r9d       # 4-byte Reload
	movl	$1, (%rsp)
	callq	trace_logger_log0
	addq	$16, %rsp
	movl	-248(%rbp), %r9d        # 4-byte Reload
	movl	%r9d, %r13d
	movl	%r13d, %edx
	subq	$16, %rsp
	movq	-1024(%rbp), %rdi       # 8-byte Reload
	movq	-904(%rbp), %rsi        # 8-byte Reload
	movq	-1048(%rbp), %rcx       # 8-byte Reload
	movq	-928(%rbp), %r8         # 8-byte Reload
	movq	-1040(%rbp), %r9        # 8-byte Reload
	movq	-1032(%rbp), %rax       # 8-byte Reload
	movq	%rax, (%rsp)
	callq	trace_logger_log_int
	addq	$16, %rsp
	movl	-1124(%rbp), %r13d      # 4-byte Reload
	movl	%r13d, %esi
	movl	%esi, %edx
	subq	$16, %rsp
	movq	-1048(%rbp), %rdi       # 8-byte Reload
	movq	-904(%rbp), %rsi        # 8-byte Reload
	movq	-1048(%rbp), %rcx       # 8-byte Reload
	movq	-920(%rbp), %r8         # 8-byte Reload
	movq	-1040(%rbp), %r9        # 8-byte Reload
	movq	-1032(%rbp), %rax       # 8-byte Reload
	movq	%rax, (%rsp)
	callq	trace_logger_log_int
	addq	$16, %rsp
	movl	-1124(%rbp), %r13d      # 4-byte Reload
	movl	-248(%rbp), %esi        # 4-byte Reload
	imull	%esi, %r13d
.Ltmp57:
	.loc	1 38 0                  # feature_extraction.c:38:0
	movl	%r13d, %esi
	movl	%esi, %edx
	subq	$16, %rsp
	movq	-896(%rbp), %rdi        # 8-byte Reload
	movq	-904(%rbp), %rsi        # 8-byte Reload
	movq	-1048(%rbp), %rcx       # 8-byte Reload
	movq	-912(%rbp), %r8         # 8-byte Reload
	movq	-1040(%rbp), %r9        # 8-byte Reload
	movq	-1032(%rbp), %rax       # 8-byte Reload
	movq	%rax, (%rsp)
	movl	%r13d, -1128(%rbp)      # 4-byte Spill
	callq	trace_logger_log_int
	addq	$16, %rsp
	subq	$16, %rsp
	movq	-1080(%rbp), %rdi       # 8-byte Reload
	movq	-1072(%rbp), %rsi       # 8-byte Reload
	movq	-1088(%rbp), %rdx       # 8-byte Reload
	movq	-1096(%rbp), %rcx       # 8-byte Reload
	movq	-1024(%rbp), %r8        # 8-byte Reload
	movl	-1100(%rbp), %r9d       # 4-byte Reload
	movl	$1, (%rsp)
	callq	trace_logger_log0
	addq	$16, %rsp
	subq	$16, %rsp
	movq	-1120(%rbp), %rdi       # 8-byte Reload
	movq	-1040(%rbp), %rsi       # 8-byte Reload
	movq	-1040(%rbp), %rdx       # 8-byte Reload
	movq	-1048(%rbp), %rcx       # 8-byte Reload
	movq	-1112(%rbp), %r8        # 8-byte Reload
	movq	-1040(%rbp), %r9        # 8-byte Reload
	movq	-1032(%rbp), %rax       # 8-byte Reload
	movq	%rax, (%rsp)
	callq	trace_logger_log_int
	addq	$16, %rsp
	subq	$16, %rsp
	movq	-1024(%rbp), %rdi       # 8-byte Reload
	movq	-1040(%rbp), %rsi       # 8-byte Reload
	movq	-1040(%rbp), %rdx       # 8-byte Reload
	movq	-1048(%rbp), %rcx       # 8-byte Reload
	movq	-1064(%rbp), %r8        # 8-byte Reload
	movq	-1040(%rbp), %r9        # 8-byte Reload
	movq	-1032(%rbp), %rax       # 8-byte Reload
	movq	%rax, (%rsp)
	callq	trace_logger_log_int
	addq	$16, %rsp
	movb	-865(%rbp), %al         # 1-byte Reload
	andb	$1, %al
	movzbl	%al, %r13d
	movl	%r13d, %edx
	subq	$16, %rsp
	movq	-1048(%rbp), %rdi       # 8-byte Reload
	movq	-1048(%rbp), %rsi       # 8-byte Reload
	movq	-1048(%rbp), %rcx       # 8-byte Reload
	movq	-1056(%rbp), %r8        # 8-byte Reload
	movq	-1040(%rbp), %r9        # 8-byte Reload
	movq	-1032(%rbp), %r10       # 8-byte Reload
	movq	%r10, (%rsp)
	callq	trace_logger_log_int
	addq	$16, %rsp
	movb	-865(%rbp), %al         # 1-byte Reload
	testb	$1, %al
	jne	.LBB1_3
	jmp	.LBB1_5
.LBB1_3:                                # %.lr.ph113
                                        #   in Loop: Header=BB1_2 Depth=1
	movabsq	$0, %rax
	movabsq	$1, %rcx
	leaq	.L.str65, %r8
	leaq	.L.str8, %rdx
	movabsq	$38, %rsi
	leaq	.L.str50, %rdi
	leaq	.L.str62, %r9
	leaq	.L.str64, %r10
	movabsq	$2, %r11
	movl	$1, %ebx
	movabsq	$19134, %r14            # imm = 0x4ABE
	movabsq	$64, %r15
	leaq	.L.str32, %r12
	movabsq	$32, %r13
	movq	%rax, -1136(%rbp)       # 8-byte Spill
	leaq	.L.str38, %rax
	movq	%rax, -1144(%rbp)       # 8-byte Spill
	movabsq	$35, %rax
	subq	$16, %rsp
	movq	%rdi, -1152(%rbp)       # 8-byte Spill
	movq	%rsi, %rdi
	movq	%rax, -1160(%rbp)       # 8-byte Spill
	movq	-1152(%rbp), %rax       # 8-byte Reload
	movq	%rsi, -1168(%rbp)       # 8-byte Spill
	movq	%rax, %rsi
	movq	%rdx, -1176(%rbp)       # 8-byte Spill
	movq	%r9, %rdx
	movq	%rcx, -1184(%rbp)       # 8-byte Spill
	movq	%r12, %rcx
	movq	-1160(%rbp), %rax       # 8-byte Reload
	movq	%r8, -1192(%rbp)        # 8-byte Spill
	movq	%rax, %r8
	movq	%r9, -1200(%rbp)        # 8-byte Spill
	movl	%ebx, %r9d
	movl	$1, (%rsp)
	movq	%r14, -1208(%rbp)       # 8-byte Spill
	movl	%ebx, -1212(%rbp)       # 4-byte Spill
	movq	%r15, -1224(%rbp)       # 8-byte Spill
	movq	%r12, -1232(%rbp)       # 8-byte Spill
	movq	%r13, -1240(%rbp)       # 8-byte Spill
	movq	%r11, -1248(%rbp)       # 8-byte Spill
	movq	%r10, -1256(%rbp)       # 8-byte Spill
	callq	trace_logger_log0
	addq	$16, %rsp
	movl	-1128(%rbp), %r9d       # 4-byte Reload
	movl	%r9d, %ebx
	movl	%ebx, %edx
	subq	$16, %rsp
	movq	-1184(%rbp), %rdi       # 8-byte Reload
	movq	-1240(%rbp), %rsi       # 8-byte Reload
	movq	-1184(%rbp), %rcx       # 8-byte Reload
	movq	-1144(%rbp), %r8        # 8-byte Reload
	movq	-1136(%rbp), %r9        # 8-byte Reload
	movq	-1176(%rbp), %rax       # 8-byte Reload
	movq	%rax, (%rsp)
	callq	trace_logger_log_int
	addq	$16, %rsp
	movl	-1128(%rbp), %ebx       # 4-byte Reload
	movslq	%ebx, %rax
	subq	$16, %rsp
	movq	-1208(%rbp), %rdi       # 8-byte Reload
	movq	-1224(%rbp), %rsi       # 8-byte Reload
	movq	%rax, %rdx
	movq	-1184(%rbp), %rcx       # 8-byte Reload
	movq	-1232(%rbp), %r8        # 8-byte Reload
	movq	-1136(%rbp), %r9        # 8-byte Reload
	movq	-1176(%rbp), %r10       # 8-byte Reload
	movq	%r10, (%rsp)
	movq	%rax, -1264(%rbp)       # 8-byte Spill
	callq	trace_logger_log_int
	addq	$16, %rsp
	subq	$16, %rsp
	movq	-1168(%rbp), %rdi       # 8-byte Reload
	movq	-1152(%rbp), %rsi       # 8-byte Reload
	movq	-1200(%rbp), %rdx       # 8-byte Reload
	movq	-1256(%rbp), %rcx       # 8-byte Reload
	movq	-1248(%rbp), %r8        # 8-byte Reload
	movl	-1212(%rbp), %r9d       # 4-byte Reload
	movl	$1, (%rsp)
	callq	trace_logger_log0
	addq	$16, %rsp
	subq	$16, %rsp
	movq	-1184(%rbp), %rdi       # 8-byte Reload
	movq	-1136(%rbp), %rsi       # 8-byte Reload
	movq	-1136(%rbp), %rdx       # 8-byte Reload
	movq	-1184(%rbp), %rcx       # 8-byte Reload
	movq	-1192(%rbp), %r8        # 8-byte Reload
	movq	-1136(%rbp), %r9        # 8-byte Reload
	movq	-1176(%rbp), %rax       # 8-byte Reload
	movq	%rax, (%rsp)
	callq	trace_logger_log_int
	addq	$16, %rsp
	movq	-1136(%rbp), %rax       # 8-byte Reload
	movq	%rax, -1272(%rbp)       # 8-byte Spill
.LBB1_4:                                #   Parent Loop BB1_2 Depth=1
                                        # =>  This Inner Loop Header: Depth=2
	movq	-1272(%rbp), %rax       # 8-byte Reload
	movabsq	$1, %rcx
	leaq	.L.str81, %rdx
	movabsq	$0, %rsi
	leaq	.L.str8, %rdi
	movabsq	$2, %r8
	leaq	.L.str65, %r9
	movabsq	$3, %r10
	leaq	.L.str63, %r11
	movabsq	$38, %rbx
	leaq	.L.str50, %r14
	leaq	.L.str82, %r15
	movl	$1, %r12d
	movabsq	$19134, %r13            # imm = 0x4ABE
	movq	%rax, -1280(%rbp)       # 8-byte Spill
	movabsq	$32, %rax
	movq	%rax, -1288(%rbp)       # 8-byte Spill
	leaq	.L.str80, %rax
	movq	%rax, -1296(%rbp)       # 8-byte Spill
	leaq	.L.str14, %rax
	movq	%rax, -1304(%rbp)       # 8-byte Spill
	movabsq	$46, %rax
	movq	%rax, -1312(%rbp)       # 8-byte Spill
	movabsq	$64, %rax
	movq	%rax, -1320(%rbp)       # 8-byte Spill
	leaq	.L.str67, %rax
	movq	%rax, -1328(%rbp)       # 8-byte Spill
	movabsq	$33, %rax
	movq	%rax, -1336(%rbp)       # 8-byte Spill
	leaq	.L.str66, %rax
	movq	%rax, -1344(%rbp)       # 8-byte Spill
	leaq	.L.str7, %rax
	movq	%rax, -1352(%rbp)       # 8-byte Spill
	movabsq	$8, %rax
	vxorps	%xmm0, %xmm0, %xmm0
	vxorps	%xmm1, %xmm1, %xmm1
	movq	%rax, -1360(%rbp)       # 8-byte Spill
	leaq	.L.str78, %rax
	movq	%rax, -1368(%rbp)       # 8-byte Spill
	movabsq	$43, %rax
	movq	%rax, -1376(%rbp)       # 8-byte Spill
	leaq	.L.str79, %rax
	movq	%rax, -1384(%rbp)       # 8-byte Spill
	movabsq	$28, %rax
	movq	%rax, -1392(%rbp)       # 8-byte Spill
	leaq	.L.str31, %rax
	movq	%rax, -1400(%rbp)       # 8-byte Spill
	leaq	.L.str68, %rax
	movq	%rax, -1408(%rbp)       # 8-byte Spill
	movabsq	$29, %rax
	movq	%rax, -1416(%rbp)       # 8-byte Spill
	leaq	.L.str76, %rax
	movq	%rax, -1424(%rbp)       # 8-byte Spill
	movabsq	$42, %rax
	movq	%rax, -1432(%rbp)       # 8-byte Spill
	leaq	.L.str77, %rax
	movq	%rax, -1440(%rbp)       # 8-byte Spill
	leaq	.L.str74, %rax
	movq	%rax, -1448(%rbp)       # 8-byte Spill
	movabsq	$41, %rax
	movq	%rax, -1456(%rbp)       # 8-byte Spill
	leaq	.L.str75, %rax
	movq	%rax, -1464(%rbp)       # 8-byte Spill
	leaq	.L.str26, %rax
	movq	%rax, -1472(%rbp)       # 8-byte Spill
	leaq	.L.str71, %rax
	movq	%rax, -1480(%rbp)       # 8-byte Spill
	leaq	.L.str72, %rax
	movq	%rax, -1488(%rbp)       # 8-byte Spill
	movabsq	$40, %rax
	movq	%rax, -1496(%rbp)       # 8-byte Spill
	leaq	.L.str73, %rax
	movq	%rax, -1504(%rbp)       # 8-byte Spill
	leaq	.L.str70, %rax
	movq	%rax, -1512(%rbp)       # 8-byte Spill
	leaq	.L.str69, %rax
	movq	%rax, -1520(%rbp)       # 8-byte Spill
	movabsq	$27, %rax
	movq	%rax, -1528(%rbp)       # 8-byte Spill
	leaq	.L.str49, %rax
	movq	%rax, -1536(%rbp)       # 8-byte Spill
	leaq	.L.str32, %rax
	movq	%rax, -1544(%rbp)       # 8-byte Spill
	leaq	.L.str62, %rax
	movq	%rax, -1552(%rbp)       # 8-byte Spill
	movabsq	$-1, %rax
	movq	%rax, -1560(%rbp)       # 8-byte Spill
	movabsq	$48, %rax
	.loc	1 40 0                  # feature_extraction.c:40:0
.Ltmp58:
	subq	$16, %rsp
	movq	%rax, -1568(%rbp)       # 8-byte Spill
	movq	-1560(%rbp), %rax       # 8-byte Reload
	movq	%rdi, -1576(%rbp)       # 8-byte Spill
	movq	%rax, %rdi
	movq	%rsi, -1584(%rbp)       # 8-byte Spill
	movq	%r14, %rsi
	movq	%rdx, -1592(%rbp)       # 8-byte Spill
	movq	%r9, %rdx
	movq	-1344(%rbp), %rax       # 8-byte Reload
	movq	%rcx, -1600(%rbp)       # 8-byte Spill
	movq	%rax, %rcx
	movq	-1568(%rbp), %rax       # 8-byte Reload
	movq	%r8, -1608(%rbp)        # 8-byte Spill
	movq	%rax, %r8
	movq	%r9, -1616(%rbp)        # 8-byte Spill
	movl	%r12d, %r9d
	movl	$1, (%rsp)
	movl	%r12d, -1620(%rbp)      # 4-byte Spill
	movq	%r13, -1632(%rbp)       # 8-byte Spill
	vmovss	%xmm0, -1636(%rbp)      # 4-byte Spill
	vmovsd	%xmm1, -1648(%rbp)      # 8-byte Spill
	movq	%r15, -1656(%rbp)       # 8-byte Spill
	movq	%r14, -1664(%rbp)       # 8-byte Spill
	movq	%r10, -1672(%rbp)       # 8-byte Spill
	movq	%r11, -1680(%rbp)       # 8-byte Spill
	movq	%rbx, -1688(%rbp)       # 8-byte Spill
	callq	trace_logger_log0
	addq	$16, %rsp
	subq	$16, %rsp
	movq	-1608(%rbp), %rdi       # 8-byte Reload
	movq	-1320(%rbp), %rsi       # 8-byte Reload
	movq	-1584(%rbp), %rdx       # 8-byte Reload
	movq	-1600(%rbp), %rcx       # 8-byte Reload
	movq	-1328(%rbp), %r8        # 8-byte Reload
	movq	-1600(%rbp), %r9        # 8-byte Reload
	movq	-1616(%rbp), %rax       # 8-byte Reload
	movq	%rax, (%rsp)
	callq	trace_logger_log_int
	addq	$16, %rsp
	subq	$16, %rsp
	movq	-1600(%rbp), %rdi       # 8-byte Reload
	movq	-1320(%rbp), %rsi       # 8-byte Reload
	movq	-1584(%rbp), %rdx       # 8-byte Reload
	movq	-1584(%rbp), %rcx       # 8-byte Reload
	movq	-1352(%rbp), %r8        # 8-byte Reload
	movq	-1600(%rbp), %r9        # 8-byte Reload
	movq	-1552(%rbp), %rax       # 8-byte Reload
	movq	%rax, (%rsp)
	callq	trace_logger_log_int
	addq	$16, %rsp
	subq	$16, %rsp
	movq	-1632(%rbp), %rdi       # 8-byte Reload
	movq	-1320(%rbp), %rsi       # 8-byte Reload
	movq	-1280(%rbp), %rdx       # 8-byte Reload
	movq	-1600(%rbp), %rcx       # 8-byte Reload
	movq	-1344(%rbp), %r8        # 8-byte Reload
	movq	-1584(%rbp), %r9        # 8-byte Reload
	movq	-1552(%rbp), %rax       # 8-byte Reload
	movq	%rax, (%rsp)
	callq	trace_logger_log_int
	addq	$16, %rsp
	subq	$16, %rsp
	movq	-1496(%rbp), %rdi       # 8-byte Reload
	movq	-1664(%rbp), %rsi       # 8-byte Reload
	movq	-1616(%rbp), %rdx       # 8-byte Reload
	movq	-1408(%rbp), %rcx       # 8-byte Reload
	movq	-1360(%rbp), %r8        # 8-byte Reload
	movl	-1620(%rbp), %r9d       # 4-byte Reload
	movl	$1, (%rsp)
	callq	trace_logger_log0
	addq	$16, %rsp
	subq	$16, %rsp
	movq	-1608(%rbp), %rdi       # 8-byte Reload
	movq	-1320(%rbp), %rsi       # 8-byte Reload
	movq	-1264(%rbp), %rdx       # 8-byte Reload
	movq	-1600(%rbp), %rcx       # 8-byte Reload
	movq	-1544(%rbp), %r8        # 8-byte Reload
	movq	-1584(%rbp), %r9        # 8-byte Reload
	movq	-1576(%rbp), %rax       # 8-byte Reload
	movq	%rax, (%rsp)
	callq	trace_logger_log_int
	addq	$16, %rsp
	subq	$16, %rsp
	movq	-1600(%rbp), %rdi       # 8-byte Reload
	movq	-1320(%rbp), %rsi       # 8-byte Reload
	movq	-1280(%rbp), %rdx       # 8-byte Reload
	movq	-1600(%rbp), %rcx       # 8-byte Reload
	movq	-1344(%rbp), %r8        # 8-byte Reload
	movq	-1584(%rbp), %r9        # 8-byte Reload
	movq	-1576(%rbp), %rax       # 8-byte Reload
	movq	%rax, (%rsp)
	callq	trace_logger_log_int
	addq	$16, %rsp
	movq	-1280(%rbp), %rax       # 8-byte Reload
	movq	-1264(%rbp), %rcx       # 8-byte Reload
	addq	%rcx, %rax
	subq	$16, %rsp
	movq	-1632(%rbp), %rdi       # 8-byte Reload
	movq	-1320(%rbp), %rsi       # 8-byte Reload
	movq	%rax, %rdx
	movq	-1600(%rbp), %rcx       # 8-byte Reload
	movq	-1408(%rbp), %r8        # 8-byte Reload
	movq	-1584(%rbp), %r9        # 8-byte Reload
	movq	-1576(%rbp), %r10       # 8-byte Reload
	movq	%r10, (%rsp)
	movq	%rax, -1696(%rbp)       # 8-byte Spill
	callq	trace_logger_log_int
	addq	$16, %rsp
	subq	$16, %rsp
	movq	-1496(%rbp), %rdi       # 8-byte Reload
	movq	-1664(%rbp), %rsi       # 8-byte Reload
	movq	-1616(%rbp), %rdx       # 8-byte Reload
	movq	-1520(%rbp), %rcx       # 8-byte Reload
	movq	-1416(%rbp), %r8        # 8-byte Reload
	movl	-1620(%rbp), %r9d       # 4-byte Reload
	movl	$1, (%rsp)
	callq	trace_logger_log0
	addq	$16, %rsp
	subq	$16, %rsp
	movq	-1608(%rbp), %rdi       # 8-byte Reload
	movq	-1320(%rbp), %rsi       # 8-byte Reload
	movq	-1696(%rbp), %rdx       # 8-byte Reload
	movq	-1600(%rbp), %rcx       # 8-byte Reload
	movq	-1408(%rbp), %r8        # 8-byte Reload
	movq	-1584(%rbp), %r9        # 8-byte Reload
	movq	-1576(%rbp), %rax       # 8-byte Reload
	movq	%rax, (%rsp)
	callq	trace_logger_log_int
	addq	$16, %rsp
	subq	$16, %rsp
	movq	-1600(%rbp), %rdi       # 8-byte Reload
	movq	-1320(%rbp), %rsi       # 8-byte Reload
	movq	-232(%rbp), %rdx        # 8-byte Reload
	movq	-1600(%rbp), %rcx       # 8-byte Reload
	movq	-1536(%rbp), %r8        # 8-byte Reload
	movq	-1584(%rbp), %r9        # 8-byte Reload
	movq	-1576(%rbp), %rax       # 8-byte Reload
	movq	%rax, (%rsp)
	callq	trace_logger_log_ptr
	addq	$16, %rsp
	movq	-1696(%rbp), %rax       # 8-byte Reload
	shlq	$3, %rax
	movq	-232(%rbp), %rcx        # 8-byte Reload
	addq	%rax, %rcx
	subq	$16, %rsp
	movq	-1632(%rbp), %rdi       # 8-byte Reload
	movq	-1320(%rbp), %rsi       # 8-byte Reload
	movq	%rcx, %rdx
	movq	-1600(%rbp), %rax       # 8-byte Reload
	movq	%rcx, -1704(%rbp)       # 8-byte Spill
	movq	%rax, %rcx
	movq	-1520(%rbp), %r8        # 8-byte Reload
	movq	-1584(%rbp), %r9        # 8-byte Reload
	movq	-1576(%rbp), %r10       # 8-byte Reload
	movq	%r10, (%rsp)
	callq	trace_logger_log_ptr
	addq	$16, %rsp
	subq	$16, %rsp
	movq	-1496(%rbp), %rdi       # 8-byte Reload
	movq	-1664(%rbp), %rsi       # 8-byte Reload
	movq	-1616(%rbp), %rdx       # 8-byte Reload
	movq	-1512(%rbp), %rcx       # 8-byte Reload
	movq	-1528(%rbp), %r8        # 8-byte Reload
	movl	-1620(%rbp), %r9d       # 4-byte Reload
	movl	$1, (%rsp)
	callq	trace_logger_log0
	addq	$16, %rsp
	subq	$16, %rsp
	movq	-1600(%rbp), %rdi       # 8-byte Reload
	movq	-1320(%rbp), %rsi       # 8-byte Reload
	movq	-1704(%rbp), %rdx       # 8-byte Reload
	movq	-1600(%rbp), %rcx       # 8-byte Reload
	movq	-1520(%rbp), %r8        # 8-byte Reload
	movq	-1584(%rbp), %r9        # 8-byte Reload
	movq	-1576(%rbp), %rax       # 8-byte Reload
	movq	%rax, (%rsp)
	callq	trace_logger_log_ptr
	addq	$16, %rsp
	movq	-232(%rbp), %rax        # 8-byte Reload
	movq	-1696(%rbp), %rcx       # 8-byte Reload
	vmovsd	(%rax,%rcx,8), %xmm0
	movq	-1632(%rbp), %rdi       # 8-byte Reload
	movq	-1320(%rbp), %rsi       # 8-byte Reload
	vmovsd	%xmm0, -1712(%rbp)      # 8-byte Spill
	movq	-1600(%rbp), %rdx       # 8-byte Reload
	movq	-1512(%rbp), %rcx       # 8-byte Reload
	movq	-1584(%rbp), %r8        # 8-byte Reload
	movq	-1576(%rbp), %r9        # 8-byte Reload
	callq	trace_logger_log_double
	subq	$16, %rsp
	movq	-1496(%rbp), %rdi       # 8-byte Reload
	movq	-1664(%rbp), %rsi       # 8-byte Reload
	movq	-1616(%rbp), %rdx       # 8-byte Reload
	movq	-1480(%rbp), %rcx       # 8-byte Reload
	movq	-1496(%rbp), %r8        # 8-byte Reload
	movl	-1620(%rbp), %r9d       # 4-byte Reload
	movl	$1, (%rsp)
	callq	trace_logger_log0
	addq	$16, %rsp
	movq	-1600(%rbp), %rdi       # 8-byte Reload
	movq	-1320(%rbp), %rsi       # 8-byte Reload
	vmovsd	-1712(%rbp), %xmm0      # 8-byte Reload
	movq	-1600(%rbp), %rdx       # 8-byte Reload
	movq	-1512(%rbp), %rcx       # 8-byte Reload
	movq	-1584(%rbp), %r8        # 8-byte Reload
	movq	-1576(%rbp), %r9        # 8-byte Reload
	callq	trace_logger_log_double
	vmovsd	-1712(%rbp), %xmm0      # 8-byte Reload
	cvtsd2ss	%xmm0, %xmm1
	cvtss2sd	%xmm1, %xmm0
	movq	-1632(%rbp), %rdi       # 8-byte Reload
	movq	-1288(%rbp), %rsi       # 8-byte Reload
	movq	-1600(%rbp), %rdx       # 8-byte Reload
	movq	-1480(%rbp), %rcx       # 8-byte Reload
	movq	-1584(%rbp), %r8        # 8-byte Reload
	movq	-1576(%rbp), %r9        # 8-byte Reload
	vmovss	%xmm1, -1716(%rbp)      # 4-byte Spill
	callq	trace_logger_log_double
	subq	$16, %rsp
	movq	-1496(%rbp), %rdi       # 8-byte Reload
	movq	-1664(%rbp), %rsi       # 8-byte Reload
	movq	-1616(%rbp), %rdx       # 8-byte Reload
	movq	-1488(%rbp), %rcx       # 8-byte Reload
	movq	-1416(%rbp), %r8        # 8-byte Reload
	movl	-1620(%rbp), %r9d       # 4-byte Reload
	movl	$1, (%rsp)
	callq	trace_logger_log0
	addq	$16, %rsp
	subq	$16, %rsp
	movq	-1672(%rbp), %rdi       # 8-byte Reload
	movq	-1288(%rbp), %rsi       # 8-byte Reload
	movq	-1584(%rbp), %rdx       # 8-byte Reload
	movq	-1584(%rbp), %rcx       # 8-byte Reload
	movq	-1352(%rbp), %r8        # 8-byte Reload
	movq	-1584(%rbp), %r9        # 8-byte Reload
	movq	-1576(%rbp), %rax       # 8-byte Reload
	movq	%rax, (%rsp)
	callq	trace_logger_log_int
	addq	$16, %rsp
	subq	$16, %rsp
	movq	-1608(%rbp), %rdi       # 8-byte Reload
	movq	-1320(%rbp), %rsi       # 8-byte Reload
	movq	-1696(%rbp), %rdx       # 8-byte Reload
	movq	-1600(%rbp), %rcx       # 8-byte Reload
	movq	-1408(%rbp), %r8        # 8-byte Reload
	movq	-1584(%rbp), %r9        # 8-byte Reload
	movq	-1576(%rbp), %rax       # 8-byte Reload
	movq	%rax, (%rsp)
	callq	trace_logger_log_int
	addq	$16, %rsp
	subq	$16, %rsp
	movq	-1600(%rbp), %rdi       # 8-byte Reload
	movq	-1320(%rbp), %rsi       # 8-byte Reload
	movq	-520(%rbp), %rdx        # 8-byte Reload
	movq	-1600(%rbp), %rcx       # 8-byte Reload
	movq	-1472(%rbp), %r8        # 8-byte Reload
	movq	-1584(%rbp), %r9        # 8-byte Reload
	movq	-1576(%rbp), %rax       # 8-byte Reload
	movq	%rax, (%rsp)
	callq	trace_logger_log_ptr
	addq	$16, %rsp
	movq	-1696(%rbp), %rax       # 8-byte Reload
	shlq	$3, %rax
	movq	-520(%rbp), %rcx        # 8-byte Reload
	addq	%rax, %rcx
	subq	$16, %rsp
	movq	-1632(%rbp), %rdi       # 8-byte Reload
	movq	-1320(%rbp), %rsi       # 8-byte Reload
	movq	%rcx, %rdx
	movq	-1600(%rbp), %rax       # 8-byte Reload
	movq	%rcx, -1728(%rbp)       # 8-byte Spill
	movq	%rax, %rcx
	movq	-1488(%rbp), %r8        # 8-byte Reload
	movq	-1584(%rbp), %r9        # 8-byte Reload
	movq	-1576(%rbp), %r10       # 8-byte Reload
	movq	%r10, (%rsp)
	callq	trace_logger_log_ptr
	addq	$16, %rsp
	subq	$16, %rsp
	movq	-1496(%rbp), %rdi       # 8-byte Reload
	movq	-1664(%rbp), %rsi       # 8-byte Reload
	movq	-1616(%rbp), %rdx       # 8-byte Reload
	movq	-1504(%rbp), %rcx       # 8-byte Reload
	movq	-1392(%rbp), %r8        # 8-byte Reload
	movl	-1620(%rbp), %r9d       # 4-byte Reload
	movl	$1, (%rsp)
	callq	trace_logger_log0
	addq	$16, %rsp
	subq	$16, %rsp
	movq	-1608(%rbp), %rdi       # 8-byte Reload
	movq	-1320(%rbp), %rsi       # 8-byte Reload
	movq	-1728(%rbp), %rdx       # 8-byte Reload
	movq	-1600(%rbp), %rcx       # 8-byte Reload
	movq	-1488(%rbp), %r8        # 8-byte Reload
	movq	-1584(%rbp), %r9        # 8-byte Reload
	movq	-1576(%rbp), %rax       # 8-byte Reload
	movq	%rax, (%rsp)
	callq	trace_logger_log_ptr
	addq	$16, %rsp
	vmovss	-1716(%rbp), %xmm0      # 4-byte Reload
	cvtss2sd	%xmm0, %xmm0
	movq	-1600(%rbp), %rdi       # 8-byte Reload
	movq	-1288(%rbp), %rsi       # 8-byte Reload
	movq	-1600(%rbp), %rdx       # 8-byte Reload
	movq	-1480(%rbp), %rcx       # 8-byte Reload
	movq	-1584(%rbp), %r8        # 8-byte Reload
	movq	-1576(%rbp), %r9        # 8-byte Reload
	callq	trace_logger_log_double
	movq	-520(%rbp), %rax        # 8-byte Reload
	movq	-1696(%rbp), %rcx       # 8-byte Reload
	vmovss	-1716(%rbp), %xmm0      # 4-byte Reload
	vmovss	%xmm0, (%rax,%rcx,8)
	.loc	1 41 0                  # feature_extraction.c:41:0
	subq	$16, %rsp
	movq	-1456(%rbp), %rdi       # 8-byte Reload
	movq	-1664(%rbp), %rsi       # 8-byte Reload
	movq	-1616(%rbp), %rdx       # 8-byte Reload
	movq	-1448(%rbp), %rcx       # 8-byte Reload
	movq	-1416(%rbp), %r8        # 8-byte Reload
	movl	-1620(%rbp), %r9d       # 4-byte Reload
	movl	$1, (%rsp)
	callq	trace_logger_log0
	addq	$16, %rsp
	subq	$16, %rsp
	movq	-1672(%rbp), %rdi       # 8-byte Reload
	movq	-1288(%rbp), %rsi       # 8-byte Reload
	movq	-1600(%rbp), %rdx       # 8-byte Reload
	movq	-1584(%rbp), %rcx       # 8-byte Reload
	movq	-1352(%rbp), %r8        # 8-byte Reload
	movq	-1584(%rbp), %r9        # 8-byte Reload
	movq	-1576(%rbp), %rax       # 8-byte Reload
	movq	%rax, (%rsp)
	callq	trace_logger_log_int
	addq	$16, %rsp
	subq	$16, %rsp
	movq	-1608(%rbp), %rdi       # 8-byte Reload
	movq	-1320(%rbp), %rsi       # 8-byte Reload
	movq	-1696(%rbp), %rdx       # 8-byte Reload
	movq	-1600(%rbp), %rcx       # 8-byte Reload
	movq	-1408(%rbp), %r8        # 8-byte Reload
	movq	-1584(%rbp), %r9        # 8-byte Reload
	movq	-1576(%rbp), %rax       # 8-byte Reload
	movq	%rax, (%rsp)
	callq	trace_logger_log_int
	addq	$16, %rsp
	subq	$16, %rsp
	movq	-1600(%rbp), %rdi       # 8-byte Reload
	movq	-1320(%rbp), %rsi       # 8-byte Reload
	movq	-520(%rbp), %rdx        # 8-byte Reload
	movq	-1600(%rbp), %rcx       # 8-byte Reload
	movq	-1472(%rbp), %r8        # 8-byte Reload
	movq	-1584(%rbp), %r9        # 8-byte Reload
	movq	-1576(%rbp), %rax       # 8-byte Reload
	movq	%rax, (%rsp)
	callq	trace_logger_log_ptr
	addq	$16, %rsp
	movq	-1696(%rbp), %rax       # 8-byte Reload
	shlq	$3, %rax
	movq	-520(%rbp), %rcx        # 8-byte Reload
	addq	%rax, %rcx
	addq	$4, %rcx
	subq	$16, %rsp
	movq	-1632(%rbp), %rdi       # 8-byte Reload
	movq	-1320(%rbp), %rsi       # 8-byte Reload
	movq	%rcx, %rdx
	movq	-1600(%rbp), %rax       # 8-byte Reload
	movq	%rcx, -1736(%rbp)       # 8-byte Spill
	movq	%rax, %rcx
	movq	-1448(%rbp), %r8        # 8-byte Reload
	movq	-1584(%rbp), %r9        # 8-byte Reload
	movq	-1576(%rbp), %r10       # 8-byte Reload
	movq	%r10, (%rsp)
	callq	trace_logger_log_ptr
	addq	$16, %rsp
	subq	$16, %rsp
	movq	-1456(%rbp), %rdi       # 8-byte Reload
	movq	-1664(%rbp), %rsi       # 8-byte Reload
	movq	-1616(%rbp), %rdx       # 8-byte Reload
	movq	-1464(%rbp), %rcx       # 8-byte Reload
	movq	-1392(%rbp), %r8        # 8-byte Reload
	movl	-1620(%rbp), %r9d       # 4-byte Reload
	movl	$1, (%rsp)
	callq	trace_logger_log0
	addq	$16, %rsp
	subq	$16, %rsp
	movq	-1608(%rbp), %rdi       # 8-byte Reload
	movq	-1320(%rbp), %rsi       # 8-byte Reload
	movq	-1736(%rbp), %rdx       # 8-byte Reload
	movq	-1600(%rbp), %rcx       # 8-byte Reload
	movq	-1448(%rbp), %r8        # 8-byte Reload
	movq	-1584(%rbp), %r9        # 8-byte Reload
	movq	-1576(%rbp), %rax       # 8-byte Reload
	movq	%rax, (%rsp)
	callq	trace_logger_log_ptr
	addq	$16, %rsp
	movq	-1600(%rbp), %rdi       # 8-byte Reload
	movq	-1288(%rbp), %rsi       # 8-byte Reload
	vmovsd	-1648(%rbp), %xmm0      # 8-byte Reload
	movq	-1584(%rbp), %rdx       # 8-byte Reload
	movq	-1352(%rbp), %rcx       # 8-byte Reload
	movq	-1584(%rbp), %r8        # 8-byte Reload
	movq	-1576(%rbp), %r9        # 8-byte Reload
	callq	trace_logger_log_double
	movq	-520(%rbp), %rax        # 8-byte Reload
	movq	-1696(%rbp), %rcx       # 8-byte Reload
	vmovss	-1636(%rbp), %xmm0      # 4-byte Reload
	vmovss	%xmm0, 4(%rax,%rcx,8)
	.loc	1 42 0                  # feature_extraction.c:42:0
	subq	$16, %rsp
	movq	-1432(%rbp), %rdi       # 8-byte Reload
	movq	-1664(%rbp), %rsi       # 8-byte Reload
	movq	-1616(%rbp), %rdx       # 8-byte Reload
	movq	-1424(%rbp), %rcx       # 8-byte Reload
	movq	-1416(%rbp), %r8        # 8-byte Reload
	movl	-1620(%rbp), %r9d       # 4-byte Reload
	movl	$1, (%rsp)
	callq	trace_logger_log0
	addq	$16, %rsp
	subq	$16, %rsp
	movq	-1672(%rbp), %rdi       # 8-byte Reload
	movq	-1288(%rbp), %rsi       # 8-byte Reload
	movq	-1584(%rbp), %rdx       # 8-byte Reload
	movq	-1584(%rbp), %rcx       # 8-byte Reload
	movq	-1352(%rbp), %r8        # 8-byte Reload
	movq	-1584(%rbp), %r9        # 8-byte Reload
	movq	-1576(%rbp), %rax       # 8-byte Reload
	movq	%rax, (%rsp)
	callq	trace_logger_log_int
	addq	$16, %rsp
	subq	$16, %rsp
	movq	-1608(%rbp), %rdi       # 8-byte Reload
	movq	-1320(%rbp), %rsi       # 8-byte Reload
	movq	-1696(%rbp), %rdx       # 8-byte Reload
	movq	-1600(%rbp), %rcx       # 8-byte Reload
	movq	-1408(%rbp), %r8        # 8-byte Reload
	movq	-1584(%rbp), %r9        # 8-byte Reload
	movq	-1576(%rbp), %rax       # 8-byte Reload
	movq	%rax, (%rsp)
	callq	trace_logger_log_int
	addq	$16, %rsp
	subq	$16, %rsp
	movq	-1600(%rbp), %rdi       # 8-byte Reload
	movq	-1320(%rbp), %rsi       # 8-byte Reload
	movq	-720(%rbp), %rdx        # 8-byte Reload
	movq	-1600(%rbp), %rcx       # 8-byte Reload
	movq	-1400(%rbp), %r8        # 8-byte Reload
	movq	-1584(%rbp), %r9        # 8-byte Reload
	movq	-1576(%rbp), %rax       # 8-byte Reload
	movq	%rax, (%rsp)
	callq	trace_logger_log_ptr
	addq	$16, %rsp
	movq	-1696(%rbp), %rax       # 8-byte Reload
	shlq	$3, %rax
	movq	-720(%rbp), %rcx        # 8-byte Reload
	addq	%rax, %rcx
	subq	$16, %rsp
	movq	-1632(%rbp), %rdi       # 8-byte Reload
	movq	-1320(%rbp), %rsi       # 8-byte Reload
	movq	%rcx, %rdx
	movq	-1600(%rbp), %rax       # 8-byte Reload
	movq	%rcx, -1744(%rbp)       # 8-byte Spill
	movq	%rax, %rcx
	movq	-1424(%rbp), %r8        # 8-byte Reload
	movq	-1584(%rbp), %r9        # 8-byte Reload
	movq	-1576(%rbp), %r10       # 8-byte Reload
	movq	%r10, (%rsp)
	callq	trace_logger_log_ptr
	addq	$16, %rsp
	subq	$16, %rsp
	movq	-1432(%rbp), %rdi       # 8-byte Reload
	movq	-1664(%rbp), %rsi       # 8-byte Reload
	movq	-1616(%rbp), %rdx       # 8-byte Reload
	movq	-1440(%rbp), %rcx       # 8-byte Reload
	movq	-1392(%rbp), %r8        # 8-byte Reload
	movl	-1620(%rbp), %r9d       # 4-byte Reload
	movl	$1, (%rsp)
	callq	trace_logger_log0
	addq	$16, %rsp
	subq	$16, %rsp
	movq	-1608(%rbp), %rdi       # 8-byte Reload
	movq	-1320(%rbp), %rsi       # 8-byte Reload
	movq	-1744(%rbp), %rdx       # 8-byte Reload
	movq	-1600(%rbp), %rcx       # 8-byte Reload
	movq	-1424(%rbp), %r8        # 8-byte Reload
	movq	-1584(%rbp), %r9        # 8-byte Reload
	movq	-1576(%rbp), %rax       # 8-byte Reload
	movq	%rax, (%rsp)
	callq	trace_logger_log_ptr
	addq	$16, %rsp
	movq	-1600(%rbp), %rdi       # 8-byte Reload
	movq	-1288(%rbp), %rsi       # 8-byte Reload
	vmovsd	-1648(%rbp), %xmm0      # 8-byte Reload
	movq	-1584(%rbp), %rdx       # 8-byte Reload
	movq	-1352(%rbp), %rcx       # 8-byte Reload
	movq	-1584(%rbp), %r8        # 8-byte Reload
	movq	-1576(%rbp), %r9        # 8-byte Reload
	callq	trace_logger_log_double
	movq	-720(%rbp), %rax        # 8-byte Reload
	movq	-1696(%rbp), %rcx       # 8-byte Reload
	vmovss	-1636(%rbp), %xmm0      # 4-byte Reload
	vmovss	%xmm0, (%rax,%rcx,8)
	.loc	1 43 0                  # feature_extraction.c:43:0
	subq	$16, %rsp
	movq	-1376(%rbp), %rdi       # 8-byte Reload
	movq	-1664(%rbp), %rsi       # 8-byte Reload
	movq	-1616(%rbp), %rdx       # 8-byte Reload
	movq	-1368(%rbp), %rcx       # 8-byte Reload
	movq	-1416(%rbp), %r8        # 8-byte Reload
	movl	-1620(%rbp), %r9d       # 4-byte Reload
	movl	$1, (%rsp)
	callq	trace_logger_log0
	addq	$16, %rsp
	subq	$16, %rsp
	movq	-1672(%rbp), %rdi       # 8-byte Reload
	movq	-1288(%rbp), %rsi       # 8-byte Reload
	movq	-1600(%rbp), %rdx       # 8-byte Reload
	movq	-1584(%rbp), %rcx       # 8-byte Reload
	movq	-1352(%rbp), %r8        # 8-byte Reload
	movq	-1584(%rbp), %r9        # 8-byte Reload
	movq	-1576(%rbp), %rax       # 8-byte Reload
	movq	%rax, (%rsp)
	callq	trace_logger_log_int
	addq	$16, %rsp
	subq	$16, %rsp
	movq	-1608(%rbp), %rdi       # 8-byte Reload
	movq	-1320(%rbp), %rsi       # 8-byte Reload
	movq	-1696(%rbp), %rdx       # 8-byte Reload
	movq	-1600(%rbp), %rcx       # 8-byte Reload
	movq	-1408(%rbp), %r8        # 8-byte Reload
	movq	-1584(%rbp), %r9        # 8-byte Reload
	movq	-1576(%rbp), %rax       # 8-byte Reload
	movq	%rax, (%rsp)
	callq	trace_logger_log_int
	addq	$16, %rsp
	subq	$16, %rsp
	movq	-1600(%rbp), %rdi       # 8-byte Reload
	movq	-1320(%rbp), %rsi       # 8-byte Reload
	movq	-720(%rbp), %rdx        # 8-byte Reload
	movq	-1600(%rbp), %rcx       # 8-byte Reload
	movq	-1400(%rbp), %r8        # 8-byte Reload
	movq	-1584(%rbp), %r9        # 8-byte Reload
	movq	-1576(%rbp), %rax       # 8-byte Reload
	movq	%rax, (%rsp)
	callq	trace_logger_log_ptr
	addq	$16, %rsp
	movq	-1696(%rbp), %rax       # 8-byte Reload
	shlq	$3, %rax
	movq	-720(%rbp), %rcx        # 8-byte Reload
	addq	%rax, %rcx
	addq	$4, %rcx
	subq	$16, %rsp
	movq	-1632(%rbp), %rdi       # 8-byte Reload
	movq	-1320(%rbp), %rsi       # 8-byte Reload
	movq	%rcx, %rdx
	movq	-1600(%rbp), %rax       # 8-byte Reload
	movq	%rcx, -1752(%rbp)       # 8-byte Spill
	movq	%rax, %rcx
	movq	-1368(%rbp), %r8        # 8-byte Reload
	movq	-1584(%rbp), %r9        # 8-byte Reload
	movq	-1576(%rbp), %r10       # 8-byte Reload
	movq	%r10, (%rsp)
	callq	trace_logger_log_ptr
	addq	$16, %rsp
	subq	$16, %rsp
	movq	-1376(%rbp), %rdi       # 8-byte Reload
	movq	-1664(%rbp), %rsi       # 8-byte Reload
	movq	-1616(%rbp), %rdx       # 8-byte Reload
	movq	-1384(%rbp), %rcx       # 8-byte Reload
	movq	-1392(%rbp), %r8        # 8-byte Reload
	movl	-1620(%rbp), %r9d       # 4-byte Reload
	movl	$1, (%rsp)
	callq	trace_logger_log0
	addq	$16, %rsp
	subq	$16, %rsp
	movq	-1608(%rbp), %rdi       # 8-byte Reload
	movq	-1320(%rbp), %rsi       # 8-byte Reload
	movq	-1752(%rbp), %rdx       # 8-byte Reload
	movq	-1600(%rbp), %rcx       # 8-byte Reload
	movq	-1368(%rbp), %r8        # 8-byte Reload
	movq	-1584(%rbp), %r9        # 8-byte Reload
	movq	-1576(%rbp), %rax       # 8-byte Reload
	movq	%rax, (%rsp)
	callq	trace_logger_log_ptr
	addq	$16, %rsp
	movq	-1600(%rbp), %rdi       # 8-byte Reload
	movq	-1288(%rbp), %rsi       # 8-byte Reload
	vmovsd	-1648(%rbp), %xmm0      # 8-byte Reload
	movq	-1584(%rbp), %rdx       # 8-byte Reload
	movq	-1352(%rbp), %rcx       # 8-byte Reload
	movq	-1584(%rbp), %r8        # 8-byte Reload
	movq	-1576(%rbp), %r9        # 8-byte Reload
	callq	trace_logger_log_double
	movq	-720(%rbp), %rax        # 8-byte Reload
	movq	-1696(%rbp), %rcx       # 8-byte Reload
	vmovss	-1636(%rbp), %xmm0      # 4-byte Reload
	vmovss	%xmm0, 4(%rax,%rcx,8)
.Ltmp59:
	.loc	1 38 0                  # feature_extraction.c:38:0
	subq	$16, %rsp
	movq	-1688(%rbp), %rdi       # 8-byte Reload
	movq	-1664(%rbp), %rsi       # 8-byte Reload
	movq	-1616(%rbp), %rdx       # 8-byte Reload
	movq	-1328(%rbp), %rcx       # 8-byte Reload
	movq	-1360(%rbp), %r8        # 8-byte Reload
	movl	-1620(%rbp), %r9d       # 4-byte Reload
	movl	$1, (%rsp)
	callq	trace_logger_log0
	addq	$16, %rsp
	subq	$16, %rsp
	movq	-1608(%rbp), %rdi       # 8-byte Reload
	movq	-1320(%rbp), %rsi       # 8-byte Reload
	movq	-1600(%rbp), %rdx       # 8-byte Reload
	movq	-1584(%rbp), %rcx       # 8-byte Reload
	movq	-1352(%rbp), %r8        # 8-byte Reload
	movq	-1584(%rbp), %r9        # 8-byte Reload
	movq	-1576(%rbp), %rax       # 8-byte Reload
	movq	%rax, (%rsp)
	callq	trace_logger_log_int
	addq	$16, %rsp
	subq	$16, %rsp
	movq	-1600(%rbp), %rdi       # 8-byte Reload
	movq	-1320(%rbp), %rsi       # 8-byte Reload
	movq	-1280(%rbp), %rdx       # 8-byte Reload
	movq	-1600(%rbp), %rcx       # 8-byte Reload
	movq	-1344(%rbp), %r8        # 8-byte Reload
	movq	-1584(%rbp), %r9        # 8-byte Reload
	movq	-1576(%rbp), %rax       # 8-byte Reload
	movq	%rax, (%rsp)
	callq	trace_logger_log_int
	addq	$16, %rsp
	movq	-1280(%rbp), %rax       # 8-byte Reload
	addq	$1, %rax
	subq	$16, %rsp
	movq	-1632(%rbp), %rdi       # 8-byte Reload
	movq	-1320(%rbp), %rsi       # 8-byte Reload
	movq	%rax, %rdx
	movq	-1600(%rbp), %rcx       # 8-byte Reload
	movq	-1328(%rbp), %r8        # 8-byte Reload
	movq	-1584(%rbp), %r9        # 8-byte Reload
	movq	-1576(%rbp), %r10       # 8-byte Reload
	movq	%r10, (%rsp)
	movq	%rax, -1760(%rbp)       # 8-byte Spill
	callq	trace_logger_log_int
	addq	$16, %rsp
	subq	$16, %rsp
	movq	-1688(%rbp), %rdi       # 8-byte Reload
	movq	-1664(%rbp), %rsi       # 8-byte Reload
	movq	-1616(%rbp), %rdx       # 8-byte Reload
	movq	-1296(%rbp), %rcx       # 8-byte Reload
	movq	-1336(%rbp), %r8        # 8-byte Reload
	movl	-1620(%rbp), %r9d       # 4-byte Reload
	movl	$1, (%rsp)
	callq	trace_logger_log0
	addq	$16, %rsp
	subq	$16, %rsp
	movq	-1600(%rbp), %rdi       # 8-byte Reload
	movq	-1320(%rbp), %rsi       # 8-byte Reload
	movq	-1760(%rbp), %rdx       # 8-byte Reload
	movq	-1600(%rbp), %rcx       # 8-byte Reload
	movq	-1328(%rbp), %r8        # 8-byte Reload
	movq	-1584(%rbp), %r9        # 8-byte Reload
	movq	-1576(%rbp), %rax       # 8-byte Reload
	movq	%rax, (%rsp)
	callq	trace_logger_log_int
	addq	$16, %rsp
	movq	-1760(%rbp), %rax       # 8-byte Reload
	movl	%eax, %r12d
	movl	%r12d, %esi
	movl	%esi, %edx
	subq	$16, %rsp
	movq	-1632(%rbp), %rdi       # 8-byte Reload
	movq	-1288(%rbp), %rsi       # 8-byte Reload
	movq	-1600(%rbp), %rcx       # 8-byte Reload
	movq	-1296(%rbp), %r8        # 8-byte Reload
	movq	-1584(%rbp), %r9        # 8-byte Reload
	movq	-1576(%rbp), %r10       # 8-byte Reload
	movq	%r10, (%rsp)
	movl	%r12d, -1764(%rbp)      # 4-byte Spill
	callq	trace_logger_log_int
	addq	$16, %rsp
	subq	$16, %rsp
	movq	-1688(%rbp), %rdi       # 8-byte Reload
	movq	-1664(%rbp), %rsi       # 8-byte Reload
	movq	-1616(%rbp), %rdx       # 8-byte Reload
	movq	-1592(%rbp), %rcx       # 8-byte Reload
	movq	-1312(%rbp), %r8        # 8-byte Reload
	movl	-1620(%rbp), %r9d       # 4-byte Reload
	movl	$1, (%rsp)
	callq	trace_logger_log0
	addq	$16, %rsp
	movl	-248(%rbp), %r9d        # 4-byte Reload
	movl	%r9d, %r12d
	movl	%r12d, %edx
	subq	$16, %rsp
	movq	-1608(%rbp), %rdi       # 8-byte Reload
	movq	-1288(%rbp), %rsi       # 8-byte Reload
	movq	-1600(%rbp), %rcx       # 8-byte Reload
	movq	-1304(%rbp), %r8        # 8-byte Reload
	movq	-1584(%rbp), %r9        # 8-byte Reload
	movq	-1576(%rbp), %rax       # 8-byte Reload
	movq	%rax, (%rsp)
	callq	trace_logger_log_int
	addq	$16, %rsp
	movl	-1764(%rbp), %r12d      # 4-byte Reload
	movl	%r12d, %esi
	movl	%esi, %edx
	subq	$16, %rsp
	movq	-1600(%rbp), %rdi       # 8-byte Reload
	movq	-1288(%rbp), %rsi       # 8-byte Reload
	movq	-1600(%rbp), %rcx       # 8-byte Reload
	movq	-1296(%rbp), %r8        # 8-byte Reload
	movq	-1584(%rbp), %r9        # 8-byte Reload
	movq	-1576(%rbp), %rax       # 8-byte Reload
	movq	%rax, (%rsp)
	callq	trace_logger_log_int
	addq	$16, %rsp
	movl	-1764(%rbp), %r12d      # 4-byte Reload
	movl	-248(%rbp), %esi        # 4-byte Reload
	cmpl	%esi, %r12d
	sete	%al
	movb	%al, %cl
	andb	$1, %cl
	movzbl	%cl, %ecx
	movl	%ecx, %edx
	subq	$16, %rsp
	movq	-1632(%rbp), %rdi       # 8-byte Reload
	movq	-1600(%rbp), %rsi       # 8-byte Reload
	movq	-1600(%rbp), %rcx       # 8-byte Reload
	movq	-1592(%rbp), %r8        # 8-byte Reload
	movq	-1584(%rbp), %r9        # 8-byte Reload
	movq	-1576(%rbp), %r10       # 8-byte Reload
	movq	%r10, (%rsp)
	movb	%al, -1765(%rbp)        # 1-byte Spill
	callq	trace_logger_log_int
	addq	$16, %rsp
	subq	$16, %rsp
	movq	-1688(%rbp), %rdi       # 8-byte Reload
	movq	-1664(%rbp), %rsi       # 8-byte Reload
	movq	-1616(%rbp), %rdx       # 8-byte Reload
	movq	-1656(%rbp), %rcx       # 8-byte Reload
	movq	-1608(%rbp), %r8        # 8-byte Reload
	movl	-1620(%rbp), %r9d       # 4-byte Reload
	movl	$1, (%rsp)
	callq	trace_logger_log0
	addq	$16, %rsp
	subq	$16, %rsp
	movq	-1672(%rbp), %rdi       # 8-byte Reload
	movq	-1584(%rbp), %rsi       # 8-byte Reload
	movq	-1584(%rbp), %rdx       # 8-byte Reload
	movq	-1600(%rbp), %rcx       # 8-byte Reload
	movq	-1680(%rbp), %r8        # 8-byte Reload
	movq	-1584(%rbp), %r9        # 8-byte Reload
	movq	-1576(%rbp), %r10       # 8-byte Reload
	movq	%r10, (%rsp)
	callq	trace_logger_log_int
	addq	$16, %rsp
	subq	$16, %rsp
	movq	-1608(%rbp), %rdi       # 8-byte Reload
	movq	-1584(%rbp), %rsi       # 8-byte Reload
	movq	-1584(%rbp), %rdx       # 8-byte Reload
	movq	-1600(%rbp), %rcx       # 8-byte Reload
	movq	-1616(%rbp), %r8        # 8-byte Reload
	movq	-1584(%rbp), %r9        # 8-byte Reload
	movq	-1576(%rbp), %r10       # 8-byte Reload
	movq	%r10, (%rsp)
	callq	trace_logger_log_int
	addq	$16, %rsp
	movb	-1765(%rbp), %al        # 1-byte Reload
	andb	$1, %al
	movzbl	%al, %r12d
	movl	%r12d, %edx
	subq	$16, %rsp
	movq	-1600(%rbp), %rdi       # 8-byte Reload
	movq	-1600(%rbp), %rsi       # 8-byte Reload
	movq	-1600(%rbp), %rcx       # 8-byte Reload
	movq	-1592(%rbp), %r8        # 8-byte Reload
	movq	-1584(%rbp), %r9        # 8-byte Reload
	movq	-1576(%rbp), %r10       # 8-byte Reload
	movq	%r10, (%rsp)
	callq	trace_logger_log_int
	addq	$16, %rsp
	movb	-1765(%rbp), %al        # 1-byte Reload
	testb	$1, %al
	movq	-1760(%rbp), %rcx       # 8-byte Reload
	movq	%rcx, -1272(%rbp)       # 8-byte Spill
	jne	.LBB1_5
	jmp	.LBB1_4
.Ltmp60:
.LBB1_5:                                # %._crit_edge114
                                        #   in Loop: Header=BB1_2 Depth=1
	movabsq	$3, %rdi
	movabsq	$64, %rax
	movabsq	$1, %rcx
	leaq	.L.str85, %rdx
	movabsq	$0, %rsi
	leaq	.L.str8, %r8
	movabsq	$2, %r9
	leaq	.L.str84, %r10
	leaq	.L.str88, %r11
	movabsq	$4, %rbx
	leaq	kiss_fft, %r14
	leaq	.L.str87, %r15
	movabsq	$45, %r12
	leaq	.L.str50, %r13
	movq	%rax, -1776(%rbp)       # 8-byte Spill
	leaq	.L.str63, %rax
	movq	%rax, -1784(%rbp)       # 8-byte Spill
	leaq	.L.str86, %rax
	movq	%rax, -1792(%rbp)       # 8-byte Spill
	movabsq	$49, %rax
	movq	%rsi, -1800(%rbp)       # 8-byte Spill
	movl	$1, %esi
	movq	%rax, -1808(%rbp)       # 8-byte Spill
	movabsq	$19134, %rax            # imm = 0x4ABE
	movq	%rax, -1816(%rbp)       # 8-byte Spill
	leaq	.L.str31, %rax
	movq	%rax, -1824(%rbp)       # 8-byte Spill
	leaq	.L.str83, %rax
	movq	%rax, -1832(%rbp)       # 8-byte Spill
	movabsq	$29, %rax
	movq	%rax, -1840(%rbp)       # 8-byte Spill
	leaq	.L.str26, %rax
	movq	%rax, -1848(%rbp)       # 8-byte Spill
	movabsq	$32, %rax
	movq	%rax, -1856(%rbp)       # 8-byte Spill
	leaq	.L.str38, %rax
	movq	%rax, -1864(%rbp)       # 8-byte Spill
	movabsq	$35, %rax
	.loc	1 45 0                  # feature_extraction.c:45:0
	subq	$16, %rsp
	movq	%rdi, -1872(%rbp)       # 8-byte Spill
	movq	%r12, %rdi
	movl	%esi, -1876(%rbp)       # 4-byte Spill
	movq	%r13, %rsi
	movq	%rax, -1888(%rbp)       # 8-byte Spill
	movq	-1784(%rbp), %rax       # 8-byte Reload
	movq	%rdx, -1896(%rbp)       # 8-byte Spill
	movq	%rax, %rdx
	movq	-1832(%rbp), %rax       # 8-byte Reload
	movq	%rcx, -1904(%rbp)       # 8-byte Spill
	movq	%rax, %rcx
	movq	-1888(%rbp), %rax       # 8-byte Reload
	movq	%r8, -1912(%rbp)        # 8-byte Spill
	movq	%rax, %r8
	movl	-1876(%rbp), %eax       # 4-byte Reload
	movq	%r9, -1920(%rbp)        # 8-byte Spill
	movl	%eax, %r9d
	movl	$1, (%rsp)
	movq	%r13, -1928(%rbp)       # 8-byte Spill
	movq	%r14, -1936(%rbp)       # 8-byte Spill
	movq	%r15, -1944(%rbp)       # 8-byte Spill
	movq	%r12, -1952(%rbp)       # 8-byte Spill
	movq	%rbx, -1960(%rbp)       # 8-byte Spill
	movq	%r11, -1968(%rbp)       # 8-byte Spill
	movq	%r10, -1976(%rbp)       # 8-byte Spill
	callq	trace_logger_log0
	addq	$16, %rsp
	movl	-1128(%rbp), %eax       # 4-byte Reload
	movl	%eax, %r9d
	movl	%r9d, %edx
	subq	$16, %rsp
	movq	-1904(%rbp), %rdi       # 8-byte Reload
	movq	-1856(%rbp), %rsi       # 8-byte Reload
	movq	-1904(%rbp), %rcx       # 8-byte Reload
	movq	-1864(%rbp), %r8        # 8-byte Reload
	movq	-1800(%rbp), %r9        # 8-byte Reload
	movq	-1912(%rbp), %r10       # 8-byte Reload
	movq	%r10, (%rsp)
	callq	trace_logger_log_int
	addq	$16, %rsp
	movl	-1128(%rbp), %eax       # 4-byte Reload
	movslq	%eax, %rcx
	subq	$16, %rsp
	movq	-1816(%rbp), %rdi       # 8-byte Reload
	movq	-1776(%rbp), %rsi       # 8-byte Reload
	movq	%rcx, %rdx
	movq	-1904(%rbp), %r8        # 8-byte Reload
	movq	%rcx, -1984(%rbp)       # 8-byte Spill
	movq	%r8, %rcx
	movq	-1832(%rbp), %r8        # 8-byte Reload
	movq	-1800(%rbp), %r9        # 8-byte Reload
	movq	-1912(%rbp), %r10       # 8-byte Reload
	movq	%r10, (%rsp)
	callq	trace_logger_log_int
	addq	$16, %rsp
	subq	$16, %rsp
	movq	-1952(%rbp), %rdi       # 8-byte Reload
	movq	-1928(%rbp), %rsi       # 8-byte Reload
	movq	-1784(%rbp), %rdx       # 8-byte Reload
	movq	-1976(%rbp), %rcx       # 8-byte Reload
	movq	-1840(%rbp), %r8        # 8-byte Reload
	movl	-1876(%rbp), %r9d       # 4-byte Reload
	movl	$1, (%rsp)
	callq	trace_logger_log0
	addq	$16, %rsp
	subq	$16, %rsp
	movq	-1920(%rbp), %rdi       # 8-byte Reload
	movq	-1776(%rbp), %rsi       # 8-byte Reload
	movq	-1984(%rbp), %rdx       # 8-byte Reload
	movq	-1904(%rbp), %rcx       # 8-byte Reload
	movq	-1832(%rbp), %r8        # 8-byte Reload
	movq	-1800(%rbp), %r9        # 8-byte Reload
	movq	-1912(%rbp), %r10       # 8-byte Reload
	movq	%r10, (%rsp)
	callq	trace_logger_log_int
	addq	$16, %rsp
	subq	$16, %rsp
	movq	-1904(%rbp), %rdi       # 8-byte Reload
	movq	-1776(%rbp), %rsi       # 8-byte Reload
	movq	-520(%rbp), %rdx        # 8-byte Reload
	movq	-1904(%rbp), %rcx       # 8-byte Reload
	movq	-1848(%rbp), %r8        # 8-byte Reload
	movq	-1800(%rbp), %r9        # 8-byte Reload
	movq	-1912(%rbp), %r10       # 8-byte Reload
	movq	%r10, (%rsp)
	callq	trace_logger_log_ptr
	addq	$16, %rsp
	movq	-1984(%rbp), %rcx       # 8-byte Reload
	shlq	$3, %rcx
	movq	-520(%rbp), %rdx        # 8-byte Reload
	addq	%rcx, %rdx
	subq	$16, %rsp
	movq	-1816(%rbp), %rdi       # 8-byte Reload
	movq	-1776(%rbp), %rsi       # 8-byte Reload
	movq	%rdx, -1992(%rbp)       # 8-byte Spill
	movq	-1904(%rbp), %rcx       # 8-byte Reload
	movq	-1976(%rbp), %r8        # 8-byte Reload
	movq	-1800(%rbp), %r9        # 8-byte Reload
	movq	-1912(%rbp), %r10       # 8-byte Reload
	movq	%r10, (%rsp)
	callq	trace_logger_log_ptr
	addq	$16, %rsp
	subq	$16, %rsp
	movq	-1952(%rbp), %rdi       # 8-byte Reload
	movq	-1928(%rbp), %rsi       # 8-byte Reload
	movq	-1784(%rbp), %rdx       # 8-byte Reload
	movq	-1896(%rbp), %rcx       # 8-byte Reload
	movq	-1840(%rbp), %r8        # 8-byte Reload
	movl	-1876(%rbp), %r9d       # 4-byte Reload
	movl	$1, (%rsp)
	callq	trace_logger_log0
	addq	$16, %rsp
	subq	$16, %rsp
	movq	-1920(%rbp), %rdi       # 8-byte Reload
	movq	-1776(%rbp), %rsi       # 8-byte Reload
	movq	-1984(%rbp), %rdx       # 8-byte Reload
	movq	-1904(%rbp), %rcx       # 8-byte Reload
	movq	-1832(%rbp), %r8        # 8-byte Reload
	movq	-1800(%rbp), %r9        # 8-byte Reload
	movq	-1912(%rbp), %r10       # 8-byte Reload
	movq	%r10, (%rsp)
	callq	trace_logger_log_int
	addq	$16, %rsp
	subq	$16, %rsp
	movq	-1904(%rbp), %rdi       # 8-byte Reload
	movq	-1776(%rbp), %rsi       # 8-byte Reload
	movq	-720(%rbp), %rdx        # 8-byte Reload
	movq	-1904(%rbp), %rcx       # 8-byte Reload
	movq	-1824(%rbp), %r8        # 8-byte Reload
	movq	-1800(%rbp), %r9        # 8-byte Reload
	movq	-1912(%rbp), %r10       # 8-byte Reload
	movq	%r10, (%rsp)
	callq	trace_logger_log_ptr
	addq	$16, %rsp
	movq	-1984(%rbp), %rcx       # 8-byte Reload
	shlq	$3, %rcx
	movq	-720(%rbp), %rdx        # 8-byte Reload
	addq	%rcx, %rdx
	subq	$16, %rsp
	movq	-1816(%rbp), %rdi       # 8-byte Reload
	movq	-1776(%rbp), %rsi       # 8-byte Reload
	movq	%rdx, -2000(%rbp)       # 8-byte Spill
	movq	-1904(%rbp), %rcx       # 8-byte Reload
	movq	-1896(%rbp), %r8        # 8-byte Reload
	movq	-1800(%rbp), %r9        # 8-byte Reload
	movq	-1912(%rbp), %r10       # 8-byte Reload
	movq	%r10, (%rsp)
	callq	trace_logger_log_ptr
	addq	$16, %rsp
	subq	$16, %rsp
	movq	-1952(%rbp), %rdi       # 8-byte Reload
	movq	-1928(%rbp), %rsi       # 8-byte Reload
	movq	-1784(%rbp), %rdx       # 8-byte Reload
	movq	-1792(%rbp), %rcx       # 8-byte Reload
	movq	-1808(%rbp), %r8        # 8-byte Reload
	movl	-1876(%rbp), %r9d       # 4-byte Reload
	movl	$1, (%rsp)
	callq	trace_logger_log0
	addq	$16, %rsp
	subq	$16, %rsp
	movq	-1960(%rbp), %rdi       # 8-byte Reload
	movq	-1776(%rbp), %rsi       # 8-byte Reload
	movq	-1936(%rbp), %rdx       # 8-byte Reload
	movq	-1904(%rbp), %rcx       # 8-byte Reload
	movq	-1944(%rbp), %r8        # 8-byte Reload
	movq	-1800(%rbp), %r9        # 8-byte Reload
	movq	-1912(%rbp), %r10       # 8-byte Reload
	movq	%r10, (%rsp)
	callq	trace_logger_log_ptr
	addq	$16, %rsp
	subq	$16, %rsp
	movq	-1904(%rbp), %rdi       # 8-byte Reload
	movq	-1776(%rbp), %rsi       # 8-byte Reload
	movq	-272(%rbp), %rdx        # 8-byte Reload
	movq	-1904(%rbp), %rcx       # 8-byte Reload
	movq	-1968(%rbp), %r8        # 8-byte Reload
	movq	-1800(%rbp), %r9        # 8-byte Reload
	movq	-1912(%rbp), %r10       # 8-byte Reload
	movq	%r10, (%rsp)
	callq	trace_logger_log_ptr
	addq	$16, %rsp
	subq	$16, %rsp
	movq	-1920(%rbp), %rdi       # 8-byte Reload
	movq	-1776(%rbp), %rsi       # 8-byte Reload
	movq	-1992(%rbp), %rdx       # 8-byte Reload
	movq	-1904(%rbp), %rcx       # 8-byte Reload
	movq	-1976(%rbp), %r8        # 8-byte Reload
	movq	-1800(%rbp), %r9        # 8-byte Reload
	movq	-1912(%rbp), %r10       # 8-byte Reload
	movq	%r10, (%rsp)
	callq	trace_logger_log_ptr
	addq	$16, %rsp
	subq	$16, %rsp
	movq	-1872(%rbp), %rdi       # 8-byte Reload
	movq	-1776(%rbp), %rsi       # 8-byte Reload
	movq	-2000(%rbp), %rdx       # 8-byte Reload
	movq	-1904(%rbp), %rcx       # 8-byte Reload
	movq	-1896(%rbp), %r8        # 8-byte Reload
	movq	-1800(%rbp), %r9        # 8-byte Reload
	movq	-1912(%rbp), %r10       # 8-byte Reload
	movq	%r10, (%rsp)
	callq	trace_logger_log_ptr
	addq	$16, %rsp
	movq	-272(%rbp), %rdi        # 8-byte Reload
	movq	-1992(%rbp), %rsi       # 8-byte Reload
	movq	-2000(%rbp), %rdx       # 8-byte Reload
	callq	kiss_fft
	movabsq	$1, %rcx
	leaq	.L.str36, %r8
	movabsq	$0, %rdx
	leaq	.L.str8, %rsi
	movabsq	$2, %rdi
	leaq	.L.str60, %r9
	movabsq	$3, %r10
	leaq	.L.str90, %r11
	movabsq	$46, %rbx
	leaq	.L.str50, %r14
	leaq	.L.str63, %r15
	leaq	.L.str89, %r12
	movl	$1, %eax
.Ltmp61:
	#DEBUG_VALUE: i <- 0
	.loc	1 46 0                  # feature_extraction.c:46:0
	subq	$16, %rsp
	movq	%rdi, -2008(%rbp)       # 8-byte Spill
	movq	%rbx, %rdi
	movq	%rsi, -2016(%rbp)       # 8-byte Spill
	movq	%r14, %rsi
	movq	%rdx, -2024(%rbp)       # 8-byte Spill
	movq	%r15, %rdx
	movq	%rcx, -2032(%rbp)       # 8-byte Spill
	movq	%r12, %rcx
	movq	-2008(%rbp), %rbx       # 8-byte Reload
	movq	%r8, -2040(%rbp)        # 8-byte Spill
	movq	%rbx, %r8
	movq	%r9, -2048(%rbp)        # 8-byte Spill
	movl	%eax, %r9d
	movl	$1, (%rsp)
	movq	%r10, -2056(%rbp)       # 8-byte Spill
	movq	%r11, -2064(%rbp)       # 8-byte Spill
	callq	trace_logger_log0
	addq	$16, %rsp
	subq	$16, %rsp
	movq	-2056(%rbp), %rdi       # 8-byte Reload
	movq	-2024(%rbp), %rsi       # 8-byte Reload
	movq	-2024(%rbp), %rdx       # 8-byte Reload
	movq	-2032(%rbp), %rcx       # 8-byte Reload
	movq	-2064(%rbp), %r8        # 8-byte Reload
	movq	-2024(%rbp), %r9        # 8-byte Reload
	movq	-2016(%rbp), %r10       # 8-byte Reload
	movq	%r10, (%rsp)
	callq	trace_logger_log_int
	addq	$16, %rsp
	subq	$16, %rsp
	movq	-2008(%rbp), %rdi       # 8-byte Reload
	movq	-2024(%rbp), %rsi       # 8-byte Reload
	movq	-2024(%rbp), %rdx       # 8-byte Reload
	movq	-2032(%rbp), %rcx       # 8-byte Reload
	movq	-2048(%rbp), %r8        # 8-byte Reload
	movq	-2024(%rbp), %r9        # 8-byte Reload
	movq	-2016(%rbp), %r10       # 8-byte Reload
	movq	%r10, (%rsp)
	callq	trace_logger_log_int
	addq	$16, %rsp
	movb	-866(%rbp), %al         # 1-byte Reload
	andb	$1, %al
	movzbl	%al, %eax
	movl	%eax, %edx
	subq	$16, %rsp
	movq	-2032(%rbp), %rdi       # 8-byte Reload
	movq	-2032(%rbp), %rsi       # 8-byte Reload
	movq	-2032(%rbp), %rcx       # 8-byte Reload
	movq	-2040(%rbp), %r8        # 8-byte Reload
	movq	-2024(%rbp), %r9        # 8-byte Reload
	movq	-2016(%rbp), %r10       # 8-byte Reload
	movq	%r10, (%rsp)
	callq	trace_logger_log_int
	addq	$16, %rsp
	movb	-866(%rbp), %al         # 1-byte Reload
	testb	$1, %al
	jne	.LBB1_6
	jmp	.LBB1_8
.LBB1_6:                                # %.lr.ph117
                                        #   in Loop: Header=BB1_2 Depth=1
	movabsq	$0, %rax
	movabsq	$1, %rcx
	leaq	.L.str93, %r8
	leaq	.L.str8, %rdx
	movabsq	$46, %rsi
	leaq	.L.str50, %rdi
	leaq	.L.str90, %r9
	leaq	.L.str92, %r10
	movabsq	$2, %r11
	movl	$1, %ebx
	movabsq	$19134, %r14            # imm = 0x4ABE
	movabsq	$64, %r15
	leaq	.L.str91, %r12
	movabsq	$32, %r13
	movq	%rax, -2072(%rbp)       # 8-byte Spill
	leaq	.L.str38, %rax
	movq	%rax, -2080(%rbp)       # 8-byte Spill
	movabsq	$35, %rax
	subq	$16, %rsp
	movq	%rdi, -2088(%rbp)       # 8-byte Spill
	movq	%rsi, %rdi
	movq	%rax, -2096(%rbp)       # 8-byte Spill
	movq	-2088(%rbp), %rax       # 8-byte Reload
	movq	%rsi, -2104(%rbp)       # 8-byte Spill
	movq	%rax, %rsi
	movq	%rdx, -2112(%rbp)       # 8-byte Spill
	movq	%r9, %rdx
	movq	%rcx, -2120(%rbp)       # 8-byte Spill
	movq	%r12, %rcx
	movq	-2096(%rbp), %rax       # 8-byte Reload
	movq	%r8, -2128(%rbp)        # 8-byte Spill
	movq	%rax, %r8
	movq	%r9, -2136(%rbp)        # 8-byte Spill
	movl	%ebx, %r9d
	movl	$1, (%rsp)
	movq	%r14, -2144(%rbp)       # 8-byte Spill
	movl	%ebx, -2148(%rbp)       # 4-byte Spill
	movq	%r15, -2160(%rbp)       # 8-byte Spill
	movq	%r12, -2168(%rbp)       # 8-byte Spill
	movq	%r13, -2176(%rbp)       # 8-byte Spill
	movq	%r11, -2184(%rbp)       # 8-byte Spill
	movq	%r10, -2192(%rbp)       # 8-byte Spill
	callq	trace_logger_log0
	addq	$16, %rsp
	movl	-1128(%rbp), %r9d       # 4-byte Reload
	movl	%r9d, %ebx
	movl	%ebx, %edx
	subq	$16, %rsp
	movq	-2120(%rbp), %rdi       # 8-byte Reload
	movq	-2176(%rbp), %rsi       # 8-byte Reload
	movq	-2120(%rbp), %rcx       # 8-byte Reload
	movq	-2080(%rbp), %r8        # 8-byte Reload
	movq	-2072(%rbp), %r9        # 8-byte Reload
	movq	-2112(%rbp), %rax       # 8-byte Reload
	movq	%rax, (%rsp)
	callq	trace_logger_log_int
	addq	$16, %rsp
	movl	-1128(%rbp), %ebx       # 4-byte Reload
	movslq	%ebx, %rax
	subq	$16, %rsp
	movq	-2144(%rbp), %rdi       # 8-byte Reload
	movq	-2160(%rbp), %rsi       # 8-byte Reload
	movq	%rax, %rdx
	movq	-2120(%rbp), %rcx       # 8-byte Reload
	movq	-2168(%rbp), %r8        # 8-byte Reload
	movq	-2072(%rbp), %r9        # 8-byte Reload
	movq	-2112(%rbp), %r10       # 8-byte Reload
	movq	%r10, (%rsp)
	movq	%rax, -2200(%rbp)       # 8-byte Spill
	callq	trace_logger_log_int
	addq	$16, %rsp
	subq	$16, %rsp
	movq	-2104(%rbp), %rdi       # 8-byte Reload
	movq	-2088(%rbp), %rsi       # 8-byte Reload
	movq	-2136(%rbp), %rdx       # 8-byte Reload
	movq	-2192(%rbp), %rcx       # 8-byte Reload
	movq	-2184(%rbp), %r8        # 8-byte Reload
	movl	-2148(%rbp), %r9d       # 4-byte Reload
	movl	$1, (%rsp)
	callq	trace_logger_log0
	addq	$16, %rsp
	subq	$16, %rsp
	movq	-2120(%rbp), %rdi       # 8-byte Reload
	movq	-2072(%rbp), %rsi       # 8-byte Reload
	movq	-2072(%rbp), %rdx       # 8-byte Reload
	movq	-2120(%rbp), %rcx       # 8-byte Reload
	movq	-2128(%rbp), %r8        # 8-byte Reload
	movq	-2072(%rbp), %r9        # 8-byte Reload
	movq	-2112(%rbp), %rax       # 8-byte Reload
	movq	%rax, (%rsp)
	callq	trace_logger_log_int
	addq	$16, %rsp
	movq	-2072(%rbp), %rax       # 8-byte Reload
	movq	%rax, -2208(%rbp)       # 8-byte Spill
.LBB1_7:                                #   Parent Loop BB1_2 Depth=1
                                        # =>  This Inner Loop Header: Depth=2
	movq	-2208(%rbp), %rax       # 8-byte Reload
	movabsq	$1, %rcx
	leaq	.L.str103, %rdx
	movabsq	$0, %rsi
	leaq	.L.str8, %rdi
	movabsq	$2, %r8
	leaq	.L.str93, %r9
	movabsq	$3, %r10
	leaq	.L.str60, %r11
	movabsq	$46, %rbx
	leaq	.L.str50, %r14
	leaq	.L.str104, %r15
	movl	$1, %r12d
	movabsq	$19134, %r13            # imm = 0x4ABE
	movq	%rax, -2216(%rbp)       # 8-byte Spill
	movabsq	$32, %rax
	movq	%rax, -2224(%rbp)       # 8-byte Spill
	leaq	.L.str102, %rax
	movq	%rax, -2232(%rbp)       # 8-byte Spill
	leaq	.L.str14, %rax
	movq	%rax, -2240(%rbp)       # 8-byte Spill
	movabsq	$64, %rax
	movq	%rax, -2248(%rbp)       # 8-byte Spill
	leaq	.L.str95, %rax
	movq	%rax, -2256(%rbp)       # 8-byte Spill
	movabsq	$33, %rax
	movq	%rax, -2264(%rbp)       # 8-byte Spill
	leaq	.L.str94, %rax
	movq	%rax, -2272(%rbp)       # 8-byte Spill
	leaq	.L.str7, %rax
	movq	%rax, -2280(%rbp)       # 8-byte Spill
	movabsq	$8, %rax
	movq	%rax, -2288(%rbp)       # 8-byte Spill
	leaq	.L.str99, %rax
	movq	%rax, -2296(%rbp)       # 8-byte Spill
	leaq	.L.str100, %rax
	movq	%rax, -2304(%rbp)       # 8-byte Spill
	movabsq	$48, %rax
	movq	%rax, -2312(%rbp)       # 8-byte Spill
	leaq	.L.str101, %rax
	movq	%rax, -2320(%rbp)       # 8-byte Spill
	movabsq	$28, %rax
	movq	%rax, -2328(%rbp)       # 8-byte Spill
	leaq	.L.str35, %rax
	movq	%rax, -2336(%rbp)       # 8-byte Spill
	leaq	.L.str96, %rax
	movq	%rax, -2344(%rbp)       # 8-byte Spill
	movabsq	$29, %rax
	movq	%rax, -2352(%rbp)       # 8-byte Spill
	leaq	.L.str98, %rax
	movq	%rax, -2360(%rbp)       # 8-byte Spill
	movabsq	$41, %rax
	movq	%rax, -2368(%rbp)       # 8-byte Spill
	leaq	.L.str97, %rax
	movq	%rax, -2376(%rbp)       # 8-byte Spill
	movabsq	$27, %rax
	movq	%rax, -2384(%rbp)       # 8-byte Spill
	leaq	.L.str31, %rax
	movq	%rax, -2392(%rbp)       # 8-byte Spill
	leaq	.L.str91, %rax
	movq	%rax, -2400(%rbp)       # 8-byte Spill
	leaq	.L.str90, %rax
	movq	%rax, -2408(%rbp)       # 8-byte Spill
	movabsq	$-1, %rax
	.loc	1 48 0                  # feature_extraction.c:48:0
.Ltmp62:
	subq	$16, %rsp
	movq	%rdi, -2416(%rbp)       # 8-byte Spill
	movq	%rax, %rdi
	movq	%rsi, -2424(%rbp)       # 8-byte Spill
	movq	%r14, %rsi
	movq	%rdx, -2432(%rbp)       # 8-byte Spill
	movq	%r9, %rdx
	movq	-2272(%rbp), %rax       # 8-byte Reload
	movq	%rcx, -2440(%rbp)       # 8-byte Spill
	movq	%rax, %rcx
	movq	-2312(%rbp), %rax       # 8-byte Reload
	movq	%r8, -2448(%rbp)        # 8-byte Spill
	movq	%rax, %r8
	movq	%r9, -2456(%rbp)        # 8-byte Spill
	movl	%r12d, %r9d
	movl	$1, (%rsp)
	movq	%r13, -2464(%rbp)       # 8-byte Spill
	movq	%r14, -2472(%rbp)       # 8-byte Spill
	movq	%r15, -2480(%rbp)       # 8-byte Spill
	movl	%r12d, -2484(%rbp)      # 4-byte Spill
	movq	%rbx, -2496(%rbp)       # 8-byte Spill
	movq	%r11, -2504(%rbp)       # 8-byte Spill
	movq	%r10, -2512(%rbp)       # 8-byte Spill
	callq	trace_logger_log0
	addq	$16, %rsp
	subq	$16, %rsp
	movq	-2448(%rbp), %rdi       # 8-byte Reload
	movq	-2248(%rbp), %rsi       # 8-byte Reload
	movq	-2424(%rbp), %rdx       # 8-byte Reload
	movq	-2440(%rbp), %rcx       # 8-byte Reload
	movq	-2256(%rbp), %r8        # 8-byte Reload
	movq	-2440(%rbp), %r9        # 8-byte Reload
	movq	-2456(%rbp), %rax       # 8-byte Reload
	movq	%rax, (%rsp)
	callq	trace_logger_log_int
	addq	$16, %rsp
	subq	$16, %rsp
	movq	-2440(%rbp), %rdi       # 8-byte Reload
	movq	-2248(%rbp), %rsi       # 8-byte Reload
	movq	-2424(%rbp), %rdx       # 8-byte Reload
	movq	-2424(%rbp), %rcx       # 8-byte Reload
	movq	-2280(%rbp), %r8        # 8-byte Reload
	movq	-2440(%rbp), %r9        # 8-byte Reload
	movq	-2408(%rbp), %rax       # 8-byte Reload
	movq	%rax, (%rsp)
	callq	trace_logger_log_int
	addq	$16, %rsp
	subq	$16, %rsp
	movq	-2464(%rbp), %rdi       # 8-byte Reload
	movq	-2248(%rbp), %rsi       # 8-byte Reload
	movq	-2216(%rbp), %rdx       # 8-byte Reload
	movq	-2440(%rbp), %rcx       # 8-byte Reload
	movq	-2272(%rbp), %r8        # 8-byte Reload
	movq	-2424(%rbp), %r9        # 8-byte Reload
	movq	-2408(%rbp), %rax       # 8-byte Reload
	movq	%rax, (%rsp)
	callq	trace_logger_log_int
	addq	$16, %rsp
	subq	$16, %rsp
	movq	-2312(%rbp), %rdi       # 8-byte Reload
	movq	-2472(%rbp), %rsi       # 8-byte Reload
	movq	-2456(%rbp), %rdx       # 8-byte Reload
	movq	-2344(%rbp), %rcx       # 8-byte Reload
	movq	-2288(%rbp), %r8        # 8-byte Reload
	movl	-2484(%rbp), %r9d       # 4-byte Reload
	movl	$1, (%rsp)
	callq	trace_logger_log0
	addq	$16, %rsp
	subq	$16, %rsp
	movq	-2448(%rbp), %rdi       # 8-byte Reload
	movq	-2248(%rbp), %rsi       # 8-byte Reload
	movq	-2200(%rbp), %rdx       # 8-byte Reload
	movq	-2440(%rbp), %rcx       # 8-byte Reload
	movq	-2400(%rbp), %r8        # 8-byte Reload
	movq	-2424(%rbp), %r9        # 8-byte Reload
	movq	-2416(%rbp), %rax       # 8-byte Reload
	movq	%rax, (%rsp)
	callq	trace_logger_log_int
	addq	$16, %rsp
	subq	$16, %rsp
	movq	-2440(%rbp), %rdi       # 8-byte Reload
	movq	-2248(%rbp), %rsi       # 8-byte Reload
	movq	-2216(%rbp), %rdx       # 8-byte Reload
	movq	-2440(%rbp), %rcx       # 8-byte Reload
	movq	-2272(%rbp), %r8        # 8-byte Reload
	movq	-2424(%rbp), %r9        # 8-byte Reload
	movq	-2416(%rbp), %rax       # 8-byte Reload
	movq	%rax, (%rsp)
	callq	trace_logger_log_int
	addq	$16, %rsp
	movq	-2216(%rbp), %rax       # 8-byte Reload
	movq	-2200(%rbp), %rcx       # 8-byte Reload
	addq	%rcx, %rax
	subq	$16, %rsp
	movq	-2464(%rbp), %rdi       # 8-byte Reload
	movq	-2248(%rbp), %rsi       # 8-byte Reload
	movq	%rax, %rdx
	movq	-2440(%rbp), %rcx       # 8-byte Reload
	movq	-2344(%rbp), %r8        # 8-byte Reload
	movq	-2424(%rbp), %r9        # 8-byte Reload
	movq	-2416(%rbp), %r10       # 8-byte Reload
	movq	%r10, (%rsp)
	movq	%rax, -2520(%rbp)       # 8-byte Spill
	callq	trace_logger_log_int
	addq	$16, %rsp
	subq	$16, %rsp
	movq	-2312(%rbp), %rdi       # 8-byte Reload
	movq	-2472(%rbp), %rsi       # 8-byte Reload
	movq	-2456(%rbp), %rdx       # 8-byte Reload
	movq	-2376(%rbp), %rcx       # 8-byte Reload
	movq	-2352(%rbp), %r8        # 8-byte Reload
	movl	-2484(%rbp), %r9d       # 4-byte Reload
	movl	$1, (%rsp)
	callq	trace_logger_log0
	addq	$16, %rsp
	subq	$16, %rsp
	movq	-2512(%rbp), %rdi       # 8-byte Reload
	movq	-2224(%rbp), %rsi       # 8-byte Reload
	movq	-2424(%rbp), %rdx       # 8-byte Reload
	movq	-2424(%rbp), %rcx       # 8-byte Reload
	movq	-2280(%rbp), %r8        # 8-byte Reload
	movq	-2424(%rbp), %r9        # 8-byte Reload
	movq	-2416(%rbp), %rax       # 8-byte Reload
	movq	%rax, (%rsp)
	callq	trace_logger_log_int
	addq	$16, %rsp
	subq	$16, %rsp
	movq	-2448(%rbp), %rdi       # 8-byte Reload
	movq	-2248(%rbp), %rsi       # 8-byte Reload
	movq	-2520(%rbp), %rdx       # 8-byte Reload
	movq	-2440(%rbp), %rcx       # 8-byte Reload
	movq	-2344(%rbp), %r8        # 8-byte Reload
	movq	-2424(%rbp), %r9        # 8-byte Reload
	movq	-2416(%rbp), %rax       # 8-byte Reload
	movq	%rax, (%rsp)
	callq	trace_logger_log_int
	addq	$16, %rsp
	subq	$16, %rsp
	movq	-2440(%rbp), %rdi       # 8-byte Reload
	movq	-2248(%rbp), %rsi       # 8-byte Reload
	movq	-720(%rbp), %rdx        # 8-byte Reload
	movq	-2440(%rbp), %rcx       # 8-byte Reload
	movq	-2392(%rbp), %r8        # 8-byte Reload
	movq	-2424(%rbp), %r9        # 8-byte Reload
	movq	-2416(%rbp), %rax       # 8-byte Reload
	movq	%rax, (%rsp)
	callq	trace_logger_log_ptr
	addq	$16, %rsp
	movq	-2520(%rbp), %rax       # 8-byte Reload
	shlq	$3, %rax
	movq	-720(%rbp), %rcx        # 8-byte Reload
	addq	%rax, %rcx
	subq	$16, %rsp
	movq	-2464(%rbp), %rdi       # 8-byte Reload
	movq	-2248(%rbp), %rsi       # 8-byte Reload
	movq	%rcx, %rdx
	movq	-2440(%rbp), %rax       # 8-byte Reload
	movq	%rcx, -2528(%rbp)       # 8-byte Spill
	movq	%rax, %rcx
	movq	-2376(%rbp), %r8        # 8-byte Reload
	movq	-2424(%rbp), %r9        # 8-byte Reload
	movq	-2416(%rbp), %r10       # 8-byte Reload
	movq	%r10, (%rsp)
	callq	trace_logger_log_ptr
	addq	$16, %rsp
	subq	$16, %rsp
	movq	-2312(%rbp), %rdi       # 8-byte Reload
	movq	-2472(%rbp), %rsi       # 8-byte Reload
	movq	-2456(%rbp), %rdx       # 8-byte Reload
	movq	-2360(%rbp), %rcx       # 8-byte Reload
	movq	-2384(%rbp), %r8        # 8-byte Reload
	movl	-2484(%rbp), %r9d       # 4-byte Reload
	movl	$1, (%rsp)
	callq	trace_logger_log0
	addq	$16, %rsp
	subq	$16, %rsp
	movq	-2440(%rbp), %rdi       # 8-byte Reload
	movq	-2248(%rbp), %rsi       # 8-byte Reload
	movq	-2528(%rbp), %rdx       # 8-byte Reload
	movq	-2440(%rbp), %rcx       # 8-byte Reload
	movq	-2376(%rbp), %r8        # 8-byte Reload
	movq	-2424(%rbp), %r9        # 8-byte Reload
	movq	-2416(%rbp), %rax       # 8-byte Reload
	movq	%rax, (%rsp)
	callq	trace_logger_log_ptr
	addq	$16, %rsp
	movq	-720(%rbp), %rax        # 8-byte Reload
	movq	-2520(%rbp), %rcx       # 8-byte Reload
	vmovss	(%rax,%rcx,8), %xmm0
	cvtss2sd	%xmm0, %xmm1
	movq	-2464(%rbp), %rdi       # 8-byte Reload
	movq	-2224(%rbp), %rsi       # 8-byte Reload
	vmovss	%xmm0, -2532(%rbp)      # 4-byte Spill
	vmovaps	%xmm1, %xmm0
	movq	-2440(%rbp), %rdx       # 8-byte Reload
	movq	-2360(%rbp), %rcx       # 8-byte Reload
	movq	-2424(%rbp), %r8        # 8-byte Reload
	movq	-2416(%rbp), %r9        # 8-byte Reload
	callq	trace_logger_log_double
	subq	$16, %rsp
	movq	-2312(%rbp), %rdi       # 8-byte Reload
	movq	-2472(%rbp), %rsi       # 8-byte Reload
	movq	-2456(%rbp), %rdx       # 8-byte Reload
	movq	-2296(%rbp), %rcx       # 8-byte Reload
	movq	-2368(%rbp), %r8        # 8-byte Reload
	movl	-2484(%rbp), %r9d       # 4-byte Reload
	movl	$1, (%rsp)
	callq	trace_logger_log0
	addq	$16, %rsp
	vmovss	-2532(%rbp), %xmm0      # 4-byte Reload
	cvtss2sd	%xmm0, %xmm0
	movq	-2440(%rbp), %rdi       # 8-byte Reload
	movq	-2224(%rbp), %rsi       # 8-byte Reload
	movq	-2440(%rbp), %rdx       # 8-byte Reload
	movq	-2360(%rbp), %rcx       # 8-byte Reload
	movq	-2424(%rbp), %r8        # 8-byte Reload
	movq	-2416(%rbp), %r9        # 8-byte Reload
	callq	trace_logger_log_double
	vmovss	-2532(%rbp), %xmm0      # 4-byte Reload
	cvtss2sd	%xmm0, %xmm1
	movq	-2464(%rbp), %rdi       # 8-byte Reload
	movq	-2248(%rbp), %rsi       # 8-byte Reload
	vmovaps	%xmm1, %xmm0
	movq	-2440(%rbp), %rdx       # 8-byte Reload
	movq	-2296(%rbp), %rcx       # 8-byte Reload
	movq	-2424(%rbp), %r8        # 8-byte Reload
	movq	-2416(%rbp), %r9        # 8-byte Reload
	vmovsd	%xmm1, -2544(%rbp)      # 8-byte Spill
	callq	trace_logger_log_double
	subq	$16, %rsp
	movq	-2312(%rbp), %rdi       # 8-byte Reload
	movq	-2472(%rbp), %rsi       # 8-byte Reload
	movq	-2456(%rbp), %rdx       # 8-byte Reload
	movq	-2304(%rbp), %rcx       # 8-byte Reload
	movq	-2352(%rbp), %r8        # 8-byte Reload
	movl	-2484(%rbp), %r9d       # 4-byte Reload
	movl	$1, (%rsp)
	callq	trace_logger_log0
	addq	$16, %rsp
	subq	$16, %rsp
	movq	-2448(%rbp), %rdi       # 8-byte Reload
	movq	-2248(%rbp), %rsi       # 8-byte Reload
	movq	-2520(%rbp), %rdx       # 8-byte Reload
	movq	-2440(%rbp), %rcx       # 8-byte Reload
	movq	-2344(%rbp), %r8        # 8-byte Reload
	movq	-2424(%rbp), %r9        # 8-byte Reload
	movq	-2416(%rbp), %rax       # 8-byte Reload
	movq	%rax, (%rsp)
	callq	trace_logger_log_int
	addq	$16, %rsp
	subq	$16, %rsp
	movq	-2440(%rbp), %rdi       # 8-byte Reload
	movq	-2248(%rbp), %rsi       # 8-byte Reload
	movq	-240(%rbp), %rdx        # 8-byte Reload
	movq	-2440(%rbp), %rcx       # 8-byte Reload
	movq	-2336(%rbp), %r8        # 8-byte Reload
	movq	-2424(%rbp), %r9        # 8-byte Reload
	movq	-2416(%rbp), %rax       # 8-byte Reload
	movq	%rax, (%rsp)
	callq	trace_logger_log_ptr
	addq	$16, %rsp
	movq	-2520(%rbp), %rax       # 8-byte Reload
	shlq	$3, %rax
	movq	-240(%rbp), %rcx        # 8-byte Reload
	addq	%rax, %rcx
	subq	$16, %rsp
	movq	-2464(%rbp), %rdi       # 8-byte Reload
	movq	-2248(%rbp), %rsi       # 8-byte Reload
	movq	%rcx, %rdx
	movq	-2440(%rbp), %rax       # 8-byte Reload
	movq	%rcx, -2552(%rbp)       # 8-byte Spill
	movq	%rax, %rcx
	movq	-2304(%rbp), %r8        # 8-byte Reload
	movq	-2424(%rbp), %r9        # 8-byte Reload
	movq	-2416(%rbp), %r10       # 8-byte Reload
	movq	%r10, (%rsp)
	callq	trace_logger_log_ptr
	addq	$16, %rsp
	subq	$16, %rsp
	movq	-2312(%rbp), %rdi       # 8-byte Reload
	movq	-2472(%rbp), %rsi       # 8-byte Reload
	movq	-2456(%rbp), %rdx       # 8-byte Reload
	movq	-2320(%rbp), %rcx       # 8-byte Reload
	movq	-2328(%rbp), %r8        # 8-byte Reload
	movl	-2484(%rbp), %r9d       # 4-byte Reload
	movl	$1, (%rsp)
	callq	trace_logger_log0
	addq	$16, %rsp
	subq	$16, %rsp
	movq	-2448(%rbp), %rdi       # 8-byte Reload
	movq	-2248(%rbp), %rsi       # 8-byte Reload
	movq	-2552(%rbp), %rdx       # 8-byte Reload
	movq	-2440(%rbp), %rcx       # 8-byte Reload
	movq	-2304(%rbp), %r8        # 8-byte Reload
	movq	-2424(%rbp), %r9        # 8-byte Reload
	movq	-2416(%rbp), %rax       # 8-byte Reload
	movq	%rax, (%rsp)
	callq	trace_logger_log_ptr
	addq	$16, %rsp
	movq	-2440(%rbp), %rdi       # 8-byte Reload
	movq	-2248(%rbp), %rsi       # 8-byte Reload
	vmovsd	-2544(%rbp), %xmm0      # 8-byte Reload
	movq	-2440(%rbp), %rdx       # 8-byte Reload
	movq	-2296(%rbp), %rcx       # 8-byte Reload
	movq	-2424(%rbp), %r8        # 8-byte Reload
	movq	-2416(%rbp), %r9        # 8-byte Reload
	callq	trace_logger_log_double
	movq	-240(%rbp), %rax        # 8-byte Reload
	movq	-2520(%rbp), %rcx       # 8-byte Reload
	vmovsd	-2544(%rbp), %xmm0      # 8-byte Reload
	vmovsd	%xmm0, (%rax,%rcx,8)
.Ltmp63:
	.loc	1 46 0                  # feature_extraction.c:46:0
	subq	$16, %rsp
	movq	-2496(%rbp), %rdi       # 8-byte Reload
	movq	-2472(%rbp), %rsi       # 8-byte Reload
	movq	-2456(%rbp), %rdx       # 8-byte Reload
	movq	-2256(%rbp), %rcx       # 8-byte Reload
	movq	-2288(%rbp), %r8        # 8-byte Reload
	movl	-2484(%rbp), %r9d       # 4-byte Reload
	movl	$1, (%rsp)
	callq	trace_logger_log0
	addq	$16, %rsp
	subq	$16, %rsp
	movq	-2448(%rbp), %rdi       # 8-byte Reload
	movq	-2248(%rbp), %rsi       # 8-byte Reload
	movq	-2440(%rbp), %rdx       # 8-byte Reload
	movq	-2424(%rbp), %rcx       # 8-byte Reload
	movq	-2280(%rbp), %r8        # 8-byte Reload
	movq	-2424(%rbp), %r9        # 8-byte Reload
	movq	-2416(%rbp), %rax       # 8-byte Reload
	movq	%rax, (%rsp)
	callq	trace_logger_log_int
	addq	$16, %rsp
	subq	$16, %rsp
	movq	-2440(%rbp), %rdi       # 8-byte Reload
	movq	-2248(%rbp), %rsi       # 8-byte Reload
	movq	-2216(%rbp), %rdx       # 8-byte Reload
	movq	-2440(%rbp), %rcx       # 8-byte Reload
	movq	-2272(%rbp), %r8        # 8-byte Reload
	movq	-2424(%rbp), %r9        # 8-byte Reload
	movq	-2416(%rbp), %rax       # 8-byte Reload
	movq	%rax, (%rsp)
	callq	trace_logger_log_int
	addq	$16, %rsp
	movq	-2216(%rbp), %rax       # 8-byte Reload
	addq	$1, %rax
	subq	$16, %rsp
	movq	-2464(%rbp), %rdi       # 8-byte Reload
	movq	-2248(%rbp), %rsi       # 8-byte Reload
	movq	%rax, %rdx
	movq	-2440(%rbp), %rcx       # 8-byte Reload
	movq	-2256(%rbp), %r8        # 8-byte Reload
	movq	-2424(%rbp), %r9        # 8-byte Reload
	movq	-2416(%rbp), %r10       # 8-byte Reload
	movq	%r10, (%rsp)
	movq	%rax, -2560(%rbp)       # 8-byte Spill
	callq	trace_logger_log_int
	addq	$16, %rsp
	subq	$16, %rsp
	movq	-2496(%rbp), %rdi       # 8-byte Reload
	movq	-2472(%rbp), %rsi       # 8-byte Reload
	movq	-2456(%rbp), %rdx       # 8-byte Reload
	movq	-2232(%rbp), %rcx       # 8-byte Reload
	movq	-2264(%rbp), %r8        # 8-byte Reload
	movl	-2484(%rbp), %r9d       # 4-byte Reload
	movl	$1, (%rsp)
	callq	trace_logger_log0
	addq	$16, %rsp
	subq	$16, %rsp
	movq	-2440(%rbp), %rdi       # 8-byte Reload
	movq	-2248(%rbp), %rsi       # 8-byte Reload
	movq	-2560(%rbp), %rdx       # 8-byte Reload
	movq	-2440(%rbp), %rcx       # 8-byte Reload
	movq	-2256(%rbp), %r8        # 8-byte Reload
	movq	-2424(%rbp), %r9        # 8-byte Reload
	movq	-2416(%rbp), %rax       # 8-byte Reload
	movq	%rax, (%rsp)
	callq	trace_logger_log_int
	addq	$16, %rsp
	movq	-2560(%rbp), %rax       # 8-byte Reload
	movl	%eax, %r12d
	movl	%r12d, %esi
	movl	%esi, %edx
	subq	$16, %rsp
	movq	-2464(%rbp), %rdi       # 8-byte Reload
	movq	-2224(%rbp), %rsi       # 8-byte Reload
	movq	-2440(%rbp), %rcx       # 8-byte Reload
	movq	-2232(%rbp), %r8        # 8-byte Reload
	movq	-2424(%rbp), %r9        # 8-byte Reload
	movq	-2416(%rbp), %r10       # 8-byte Reload
	movq	%r10, (%rsp)
	movl	%r12d, -2564(%rbp)      # 4-byte Spill
	callq	trace_logger_log_int
	addq	$16, %rsp
	subq	$16, %rsp
	movq	-2496(%rbp), %rdi       # 8-byte Reload
	movq	-2472(%rbp), %rsi       # 8-byte Reload
	movq	-2456(%rbp), %rdx       # 8-byte Reload
	movq	-2432(%rbp), %rcx       # 8-byte Reload
	movq	-2496(%rbp), %r8        # 8-byte Reload
	movl	-2484(%rbp), %r9d       # 4-byte Reload
	movl	$1, (%rsp)
	callq	trace_logger_log0
	addq	$16, %rsp
	movl	-248(%rbp), %r9d        # 4-byte Reload
	movl	%r9d, %r12d
	movl	%r12d, %edx
	subq	$16, %rsp
	movq	-2448(%rbp), %rdi       # 8-byte Reload
	movq	-2224(%rbp), %rsi       # 8-byte Reload
	movq	-2440(%rbp), %rcx       # 8-byte Reload
	movq	-2240(%rbp), %r8        # 8-byte Reload
	movq	-2424(%rbp), %r9        # 8-byte Reload
	movq	-2416(%rbp), %rax       # 8-byte Reload
	movq	%rax, (%rsp)
	callq	trace_logger_log_int
	addq	$16, %rsp
	movl	-2564(%rbp), %r12d      # 4-byte Reload
	movl	%r12d, %esi
	movl	%esi, %edx
	subq	$16, %rsp
	movq	-2440(%rbp), %rdi       # 8-byte Reload
	movq	-2224(%rbp), %rsi       # 8-byte Reload
	movq	-2440(%rbp), %rcx       # 8-byte Reload
	movq	-2232(%rbp), %r8        # 8-byte Reload
	movq	-2424(%rbp), %r9        # 8-byte Reload
	movq	-2416(%rbp), %rax       # 8-byte Reload
	movq	%rax, (%rsp)
	callq	trace_logger_log_int
	addq	$16, %rsp
	movl	-2564(%rbp), %r12d      # 4-byte Reload
	movl	-248(%rbp), %esi        # 4-byte Reload
	cmpl	%esi, %r12d
	sete	%al
	movb	%al, %cl
	andb	$1, %cl
	movzbl	%cl, %ecx
	movl	%ecx, %edx
	subq	$16, %rsp
	movq	-2464(%rbp), %rdi       # 8-byte Reload
	movq	-2440(%rbp), %rsi       # 8-byte Reload
	movq	-2440(%rbp), %rcx       # 8-byte Reload
	movq	-2432(%rbp), %r8        # 8-byte Reload
	movq	-2424(%rbp), %r9        # 8-byte Reload
	movq	-2416(%rbp), %r10       # 8-byte Reload
	movq	%r10, (%rsp)
	movb	%al, -2565(%rbp)        # 1-byte Spill
	callq	trace_logger_log_int
	addq	$16, %rsp
	subq	$16, %rsp
	movq	-2496(%rbp), %rdi       # 8-byte Reload
	movq	-2472(%rbp), %rsi       # 8-byte Reload
	movq	-2456(%rbp), %rdx       # 8-byte Reload
	movq	-2480(%rbp), %rcx       # 8-byte Reload
	movq	-2448(%rbp), %r8        # 8-byte Reload
	movl	-2484(%rbp), %r9d       # 4-byte Reload
	movl	$1, (%rsp)
	callq	trace_logger_log0
	addq	$16, %rsp
	subq	$16, %rsp
	movq	-2512(%rbp), %rdi       # 8-byte Reload
	movq	-2424(%rbp), %rsi       # 8-byte Reload
	movq	-2424(%rbp), %rdx       # 8-byte Reload
	movq	-2440(%rbp), %rcx       # 8-byte Reload
	movq	-2504(%rbp), %r8        # 8-byte Reload
	movq	-2424(%rbp), %r9        # 8-byte Reload
	movq	-2416(%rbp), %r10       # 8-byte Reload
	movq	%r10, (%rsp)
	callq	trace_logger_log_int
	addq	$16, %rsp
	subq	$16, %rsp
	movq	-2448(%rbp), %rdi       # 8-byte Reload
	movq	-2424(%rbp), %rsi       # 8-byte Reload
	movq	-2424(%rbp), %rdx       # 8-byte Reload
	movq	-2440(%rbp), %rcx       # 8-byte Reload
	movq	-2456(%rbp), %r8        # 8-byte Reload
	movq	-2424(%rbp), %r9        # 8-byte Reload
	movq	-2416(%rbp), %r10       # 8-byte Reload
	movq	%r10, (%rsp)
	callq	trace_logger_log_int
	addq	$16, %rsp
	movb	-2565(%rbp), %al        # 1-byte Reload
	andb	$1, %al
	movzbl	%al, %r12d
	movl	%r12d, %edx
	subq	$16, %rsp
	movq	-2440(%rbp), %rdi       # 8-byte Reload
	movq	-2440(%rbp), %rsi       # 8-byte Reload
	movq	-2440(%rbp), %rcx       # 8-byte Reload
	movq	-2432(%rbp), %r8        # 8-byte Reload
	movq	-2424(%rbp), %r9        # 8-byte Reload
	movq	-2416(%rbp), %r10       # 8-byte Reload
	movq	%r10, (%rsp)
	callq	trace_logger_log_int
	addq	$16, %rsp
	movb	-2565(%rbp), %al        # 1-byte Reload
	testb	$1, %al
	movq	-2560(%rbp), %rcx       # 8-byte Reload
	movq	%rcx, -2208(%rbp)       # 8-byte Spill
	jne	.LBB1_8
	jmp	.LBB1_7
.Ltmp64:
.LBB1_8:                                # %._crit_edge118
                                        #   in Loop: Header=BB1_2 Depth=1
	movabsq	$1, %rax
	leaq	.L.str106, %rcx
	movabsq	$0, %rdx
	leaq	.L.str8, %rsi
	movabsq	$2, %rdi
	leaq	.L.str57, %r8
	movabsq	$3, %r9
	leaq	.L.str55, %r10
	movabsq	$36, %r11
	leaq	.L.str50, %rbx
	leaq	.L.str60, %r14
	leaq	.L.str107, %r15
	movl	$1, %r12d
	movabsq	$19134, %r13            # imm = 0x4ABE
	movq	%rax, -2576(%rbp)       # 8-byte Spill
	movabsq	$32, %rax
	movq	%rax, -2584(%rbp)       # 8-byte Spill
	leaq	.L.str105, %rax
	movq	%rax, -2592(%rbp)       # 8-byte Spill
	leaq	.L.str9, %rax
	movq	%rax, -2600(%rbp)       # 8-byte Spill
	movabsq	$46, %rax
	movq	%rax, -2608(%rbp)       # 8-byte Spill
	movabsq	$64, %rax
	movq	%rax, -2616(%rbp)       # 8-byte Spill
	leaq	.L.str59, %rax
	movq	%rax, -2624(%rbp)       # 8-byte Spill
	movabsq	$33, %rax
	movq	%rax, -2632(%rbp)       # 8-byte Spill
	leaq	.L.str58, %rax
	movq	%rax, -2640(%rbp)       # 8-byte Spill
	leaq	.L.str7, %rax
	movq	%rax, -2648(%rbp)       # 8-byte Spill
	movabsq	$8, %rax
	.loc	1 36 0                  # feature_extraction.c:36:0
	subq	$16, %rsp
	movq	%rdi, -2656(%rbp)       # 8-byte Spill
	movq	%r11, %rdi
	movq	%rsi, -2664(%rbp)       # 8-byte Spill
	movq	%rbx, %rsi
	movq	%rdx, -2672(%rbp)       # 8-byte Spill
	movq	%r14, %rdx
	movq	%rax, -2680(%rbp)       # 8-byte Spill
	movq	-2624(%rbp), %rax       # 8-byte Reload
	movq	%rcx, -2688(%rbp)       # 8-byte Spill
	movq	%rax, %rcx
	movq	-2680(%rbp), %rax       # 8-byte Reload
	movq	%r8, -2696(%rbp)        # 8-byte Spill
	movq	%rax, %r8
	movq	%r9, -2704(%rbp)        # 8-byte Spill
	movl	%r12d, %r9d
	movl	$1, (%rsp)
	movq	%r14, -2712(%rbp)       # 8-byte Spill
	movq	%r15, -2720(%rbp)       # 8-byte Spill
	movl	%r12d, -2724(%rbp)      # 4-byte Spill
	movq	%r13, -2736(%rbp)       # 8-byte Spill
	movq	%rbx, -2744(%rbp)       # 8-byte Spill
	movq	%r11, -2752(%rbp)       # 8-byte Spill
	movq	%r10, -2760(%rbp)       # 8-byte Spill
	callq	trace_logger_log0
	addq	$16, %rsp
	subq	$16, %rsp
	movq	-2656(%rbp), %rdi       # 8-byte Reload
	movq	-2616(%rbp), %rsi       # 8-byte Reload
	movq	-2576(%rbp), %rdx       # 8-byte Reload
	movq	-2672(%rbp), %rcx       # 8-byte Reload
	movq	-2648(%rbp), %r8        # 8-byte Reload
	movq	-2672(%rbp), %r9        # 8-byte Reload
	movq	-2664(%rbp), %rax       # 8-byte Reload
	movq	%rax, (%rsp)
	callq	trace_logger_log_int
	addq	$16, %rsp
	subq	$16, %rsp
	movq	-2576(%rbp), %rdi       # 8-byte Reload
	movq	-2616(%rbp), %rsi       # 8-byte Reload
	movq	-888(%rbp), %rdx        # 8-byte Reload
	movq	-2576(%rbp), %rcx       # 8-byte Reload
	movq	-2640(%rbp), %r8        # 8-byte Reload
	movq	-2672(%rbp), %r9        # 8-byte Reload
	movq	-2664(%rbp), %rax       # 8-byte Reload
	movq	%rax, (%rsp)
	callq	trace_logger_log_int
	addq	$16, %rsp
	movq	-888(%rbp), %rax        # 8-byte Reload
	addq	$1, %rax
	subq	$16, %rsp
	movq	-2736(%rbp), %rdi       # 8-byte Reload
	movq	-2616(%rbp), %rsi       # 8-byte Reload
	movq	%rax, %rdx
	movq	-2576(%rbp), %rcx       # 8-byte Reload
	movq	-2624(%rbp), %r8        # 8-byte Reload
	movq	-2672(%rbp), %r9        # 8-byte Reload
	movq	-2664(%rbp), %r10       # 8-byte Reload
	movq	%r10, (%rsp)
	movq	%rax, -2768(%rbp)       # 8-byte Spill
	callq	trace_logger_log_int
	addq	$16, %rsp
	subq	$16, %rsp
	movq	-2752(%rbp), %rdi       # 8-byte Reload
	movq	-2744(%rbp), %rsi       # 8-byte Reload
	movq	-2712(%rbp), %rdx       # 8-byte Reload
	movq	-2592(%rbp), %rcx       # 8-byte Reload
	movq	-2632(%rbp), %r8        # 8-byte Reload
	movl	-2724(%rbp), %r9d       # 4-byte Reload
	movl	$1, (%rsp)
	callq	trace_logger_log0
	addq	$16, %rsp
	subq	$16, %rsp
	movq	-2576(%rbp), %rdi       # 8-byte Reload
	movq	-2616(%rbp), %rsi       # 8-byte Reload
	movq	-2768(%rbp), %rdx       # 8-byte Reload
	movq	-2576(%rbp), %rcx       # 8-byte Reload
	movq	-2624(%rbp), %r8        # 8-byte Reload
	movq	-2672(%rbp), %r9        # 8-byte Reload
	movq	-2664(%rbp), %rax       # 8-byte Reload
	movq	%rax, (%rsp)
	callq	trace_logger_log_int
	addq	$16, %rsp
	movq	-2768(%rbp), %rax       # 8-byte Reload
	movl	%eax, %r12d
	movl	%r12d, %esi
	movl	%esi, %edx
	subq	$16, %rsp
	movq	-2736(%rbp), %rdi       # 8-byte Reload
	movq	-2584(%rbp), %rsi       # 8-byte Reload
	movq	-2576(%rbp), %rcx       # 8-byte Reload
	movq	-2592(%rbp), %r8        # 8-byte Reload
	movq	-2672(%rbp), %r9        # 8-byte Reload
	movq	-2664(%rbp), %r10       # 8-byte Reload
	movq	%r10, (%rsp)
	movl	%r12d, -2772(%rbp)      # 4-byte Spill
	callq	trace_logger_log_int
	addq	$16, %rsp
	subq	$16, %rsp
	movq	-2752(%rbp), %rdi       # 8-byte Reload
	movq	-2744(%rbp), %rsi       # 8-byte Reload
	movq	-2712(%rbp), %rdx       # 8-byte Reload
	movq	-2688(%rbp), %rcx       # 8-byte Reload
	movq	-2608(%rbp), %r8        # 8-byte Reload
	movl	-2724(%rbp), %r9d       # 4-byte Reload
	movl	$1, (%rsp)
	callq	trace_logger_log0
	addq	$16, %rsp
	movl	-76(%rbp), %r9d         # 4-byte Reload
	movl	%r9d, %r12d
	movl	%r12d, %edx
	subq	$16, %rsp
	movq	-2656(%rbp), %rdi       # 8-byte Reload
	movq	-2584(%rbp), %rsi       # 8-byte Reload
	movq	-2576(%rbp), %rcx       # 8-byte Reload
	movq	-2600(%rbp), %r8        # 8-byte Reload
	movq	-2672(%rbp), %r9        # 8-byte Reload
	movq	-2664(%rbp), %rax       # 8-byte Reload
	movq	%rax, (%rsp)
	callq	trace_logger_log_int
	addq	$16, %rsp
	movl	-2772(%rbp), %r12d      # 4-byte Reload
	movl	%r12d, %esi
	movl	%esi, %edx
	subq	$16, %rsp
	movq	-2576(%rbp), %rdi       # 8-byte Reload
	movq	-2584(%rbp), %rsi       # 8-byte Reload
	movq	-2576(%rbp), %rcx       # 8-byte Reload
	movq	-2592(%rbp), %r8        # 8-byte Reload
	movq	-2672(%rbp), %r9        # 8-byte Reload
	movq	-2664(%rbp), %rax       # 8-byte Reload
	movq	%rax, (%rsp)
	callq	trace_logger_log_int
	addq	$16, %rsp
	movl	-2772(%rbp), %r12d      # 4-byte Reload
	movl	-76(%rbp), %esi         # 4-byte Reload
	cmpl	%esi, %r12d
	sete	%al
	movb	%al, %cl
	andb	$1, %cl
	movzbl	%cl, %ecx
	movl	%ecx, %edx
	subq	$16, %rsp
	movq	-2736(%rbp), %rdi       # 8-byte Reload
	movq	-2576(%rbp), %rsi       # 8-byte Reload
	movq	-2576(%rbp), %rcx       # 8-byte Reload
	movq	-2688(%rbp), %r8        # 8-byte Reload
	movq	-2672(%rbp), %r9        # 8-byte Reload
	movq	-2664(%rbp), %r10       # 8-byte Reload
	movq	%r10, (%rsp)
	movb	%al, -2773(%rbp)        # 1-byte Spill
	callq	trace_logger_log_int
	addq	$16, %rsp
	subq	$16, %rsp
	movq	-2752(%rbp), %rdi       # 8-byte Reload
	movq	-2744(%rbp), %rsi       # 8-byte Reload
	movq	-2712(%rbp), %rdx       # 8-byte Reload
	movq	-2720(%rbp), %rcx       # 8-byte Reload
	movq	-2656(%rbp), %r8        # 8-byte Reload
	movl	-2724(%rbp), %r9d       # 4-byte Reload
	movl	$1, (%rsp)
	callq	trace_logger_log0
	addq	$16, %rsp
	subq	$16, %rsp
	movq	-2704(%rbp), %rdi       # 8-byte Reload
	movq	-2672(%rbp), %rsi       # 8-byte Reload
	movq	-2672(%rbp), %rdx       # 8-byte Reload
	movq	-2576(%rbp), %rcx       # 8-byte Reload
	movq	-2760(%rbp), %r8        # 8-byte Reload
	movq	-2672(%rbp), %r9        # 8-byte Reload
	movq	-2664(%rbp), %r10       # 8-byte Reload
	movq	%r10, (%rsp)
	callq	trace_logger_log_int
	addq	$16, %rsp
	subq	$16, %rsp
	movq	-2656(%rbp), %rdi       # 8-byte Reload
	movq	-2672(%rbp), %rsi       # 8-byte Reload
	movq	-2672(%rbp), %rdx       # 8-byte Reload
	movq	-2576(%rbp), %rcx       # 8-byte Reload
	movq	-2696(%rbp), %r8        # 8-byte Reload
	movq	-2672(%rbp), %r9        # 8-byte Reload
	movq	-2664(%rbp), %r10       # 8-byte Reload
	movq	%r10, (%rsp)
	callq	trace_logger_log_int
	addq	$16, %rsp
	movb	-2773(%rbp), %al        # 1-byte Reload
	andb	$1, %al
	movzbl	%al, %r12d
	movl	%r12d, %edx
	subq	$16, %rsp
	movq	-2576(%rbp), %rdi       # 8-byte Reload
	movq	-2576(%rbp), %rsi       # 8-byte Reload
	movq	-2576(%rbp), %rcx       # 8-byte Reload
	movq	-2688(%rbp), %r8        # 8-byte Reload
	movq	-2672(%rbp), %r9        # 8-byte Reload
	movq	-2664(%rbp), %r10       # 8-byte Reload
	movq	%r10, (%rsp)
	callq	trace_logger_log_int
	addq	$16, %rsp
	movb	-2773(%rbp), %al        # 1-byte Reload
	testb	$1, %al
	movq	-2768(%rbp), %rcx       # 8-byte Reload
	movq	%rcx, -880(%rbp)        # 8-byte Spill
	jne	.LBB1_9
	jmp	.LBB1_2
.Ltmp65:
.LBB1_9:                                # %._crit_edge120
	movabsq	$0, %rax
	movabsq	$1, %rcx
	leaq	.L.str114, %rdx
	leaq	.L.str8, %rsi
	movabsq	$2, %rdi
	leaq	.L.str117, %r8
	movabsq	$3, %r9
	leaq	.L.str116, %r10
	movabsq	$59, %r11
	leaq	.L.str50, %rbx
	leaq	.L.str55, %r14
	leaq	.L.str115, %r15
	movl	$1, %r12d
	movabsq	$19134, %r13            # imm = 0x4ABE
	movq	%rax, -2784(%rbp)       # 8-byte Spill
	movabsq	$32, %rax
	movq	%rax, -2792(%rbp)       # 8-byte Spill
	leaq	.L.str9, %rax
	movq	%rax, -2800(%rbp)       # 8-byte Spill
	leaq	.L.str7, %rax
	movq	%rax, -2808(%rbp)       # 8-byte Spill
	movabsq	$46, %rax
	movq	%rax, -2816(%rbp)       # 8-byte Spill
	movabsq	$64, %rax
	movq	%rax, -2824(%rbp)       # 8-byte Spill
	leaq	.L.str113, %rax
	.loc	1 51 0                  # feature_extraction.c:51:0
	subq	$16, %rsp
	movq	%rax, -2832(%rbp)       # 8-byte Spill
	movq	%rsp, %rax
	movl	$1, (%rax)
	movl	$.L.str50, %eax
                                        # kill: RAX<def> EAX<kill>
	movq	%rsi, -2840(%rbp)       # 8-byte Spill
	movl	$.L.str55, %esi
                                        # kill: RSI<def> ESI<kill>
	movq	%rsi, -2848(%rbp)       # 8-byte Spill
	movl	$.L.str108, %esi
                                        # kill: RSI<def> ESI<kill>
	movq	%rsi, -2856(%rbp)       # 8-byte Spill
	movl	$51, %esi
                                        # kill: RSI<def> ESI<kill>
	movq	%rsi, -2864(%rbp)       # 8-byte Spill
	movl	$49, %esi
                                        # kill: RSI<def> ESI<kill>
	movq	%rsi, -2872(%rbp)       # 8-byte Spill
	movl	$1, %esi
	movq	%rax, -2880(%rbp)       # 8-byte Spill
	movq	-2864(%rbp), %rax       # 8-byte Reload
	movq	%rdi, -2888(%rbp)       # 8-byte Spill
	movq	%rax, %rdi
	movq	-2880(%rbp), %rax       # 8-byte Reload
	movl	%esi, -2892(%rbp)       # 4-byte Spill
	movq	%rax, %rsi
	movq	-2848(%rbp), %rax       # 8-byte Reload
	movq	%rdx, -2904(%rbp)       # 8-byte Spill
	movq	%rax, %rdx
	movq	-2856(%rbp), %rax       # 8-byte Reload
	movq	%rcx, -2912(%rbp)       # 8-byte Spill
	movq	%rax, %rcx
	movq	-2872(%rbp), %rax       # 8-byte Reload
	movq	%r8, -2920(%rbp)        # 8-byte Spill
	movq	%rax, %r8
	movl	-2892(%rbp), %eax       # 4-byte Reload
	movq	%r9, -2928(%rbp)        # 8-byte Spill
	movl	%eax, %r9d
	movq	%r13, -2936(%rbp)       # 8-byte Spill
	movq	%r14, -2944(%rbp)       # 8-byte Spill
	movq	%r15, -2952(%rbp)       # 8-byte Spill
	movl	%r12d, -2956(%rbp)      # 4-byte Spill
	movq	%rbx, -2968(%rbp)       # 8-byte Spill
	movq	%r11, -2976(%rbp)       # 8-byte Spill
	movq	%r10, -2984(%rbp)       # 8-byte Spill
	callq	trace_logger_log0
	addq	$16, %rsp
	subq	$16, %rsp
	movq	%rsp, %rcx
	movq	$.L.str8, (%rcx)
	movl	$free, %eax
	movl	%eax, %ecx
	movl	$.L.str109, %eax
	movl	%eax, %edx
	movl	$2, %eax
	movl	%eax, %esi
	movl	$64, %eax
	movl	%eax, %edi
	movl	$1, %eax
	movl	%eax, %r8d
	xorl	%eax, %eax
	movl	%eax, %r10d
	movq	%rdi, -2992(%rbp)       # 8-byte Spill
	movq	%rsi, %rdi
	movq	-2992(%rbp), %r11       # 8-byte Reload
	movq	%rsi, -3000(%rbp)       # 8-byte Spill
	movq	%r11, %rsi
	movq	%rdx, -3008(%rbp)       # 8-byte Spill
	movq	%rcx, %rdx
	movq	%rcx, -3016(%rbp)       # 8-byte Spill
	movq	%r8, %rcx
	movq	-3008(%rbp), %rbx       # 8-byte Reload
	movq	%r8, -3024(%rbp)        # 8-byte Spill
	movq	%rbx, %r8
	movq	%r10, %r9
	movq	%r10, -3032(%rbp)       # 8-byte Spill
	callq	trace_logger_log_ptr
	addq	$16, %rsp
	subq	$16, %rsp
	movq	%rsp, %rcx
	movq	$.L.str8, (%rcx)
	movl	$.L.str25, %eax
	movl	%eax, %r8d
	movq	-3024(%rbp), %rdi       # 8-byte Reload
	movq	-2992(%rbp), %rsi       # 8-byte Reload
	movq	-368(%rbp), %rdx        # 8-byte Reload
	movq	-3024(%rbp), %rcx       # 8-byte Reload
	movq	-3032(%rbp), %r9        # 8-byte Reload
	callq	trace_logger_log_ptr
	addq	$16, %rsp
	movq	-368(%rbp), %rdi        # 8-byte Reload
	callq	free
	.loc	1 52 0                  # feature_extraction.c:52:0
	subq	$16, %rsp
	movq	%rsp, %rcx
	movl	$1, (%rcx)
	movl	$.L.str110, %eax
	movl	%eax, %ecx
	movl	$52, %eax
	movl	%eax, %edi
	movq	-2880(%rbp), %rsi       # 8-byte Reload
	movq	-2848(%rbp), %rdx       # 8-byte Reload
	movq	-2872(%rbp), %r8        # 8-byte Reload
	movl	-2892(%rbp), %r9d       # 4-byte Reload
	callq	trace_logger_log0
	addq	$16, %rsp
	subq	$16, %rsp
	movq	%rsp, %rcx
	movq	$.L.str8, (%rcx)
	movq	-3000(%rbp), %rdi       # 8-byte Reload
	movq	-2992(%rbp), %rsi       # 8-byte Reload
	movq	-3016(%rbp), %rdx       # 8-byte Reload
	movq	-3024(%rbp), %rcx       # 8-byte Reload
	movq	-3008(%rbp), %r8        # 8-byte Reload
	movq	-3032(%rbp), %r9        # 8-byte Reload
	callq	trace_logger_log_ptr
	addq	$16, %rsp
	subq	$16, %rsp
	movq	%rsp, %rcx
	movq	$.L.str8, (%rcx)
	movl	$.L.str52, %eax
	movl	%eax, %r8d
	movq	-3024(%rbp), %rdi       # 8-byte Reload
	movq	-2992(%rbp), %rsi       # 8-byte Reload
	movq	-528(%rbp), %rdx        # 8-byte Reload
	movq	-3024(%rbp), %rcx       # 8-byte Reload
	movq	-3032(%rbp), %r9        # 8-byte Reload
	callq	trace_logger_log_ptr
	addq	$16, %rsp
	movq	-528(%rbp), %rdi        # 8-byte Reload
	callq	free
.Ltmp66:
	#DEBUG_VALUE: process_data:low_index <- 1
	#DEBUG_VALUE: process_data:high_index <- 47
	#DEBUG_VALUE: process_data:n_fft_items <- 47
	.loc	1 58 0                  # feature_extraction.c:58:0
	subq	$16, %rsp
	movq	%rsp, %rcx
	movl	$1, (%rcx)
	movl	$.L.str111, %eax
	movl	%eax, %ecx
	movl	$58, %eax
	movl	%eax, %edx
	movl	$12, %eax
	movl	%eax, %r8d
	movq	%rdx, %rdi
	movq	-2880(%rbp), %rsi       # 8-byte Reload
	movq	-2848(%rbp), %r9        # 8-byte Reload
	movq	%rdx, -3040(%rbp)       # 8-byte Spill
	movq	%r9, %rdx
	movq	%rcx, -3048(%rbp)       # 8-byte Spill
	movl	-2892(%rbp), %r9d       # 4-byte Reload
	callq	trace_logger_log0
	addq	$16, %rsp
	subq	$16, %rsp
	movq	%rsp, %rcx
	movq	$.L.str8, (%rcx)
	movl	$.L.str7, %eax
	movl	%eax, %r8d
	movl	$32, %eax
	movl	%eax, %ecx
	movl	$47, %eax
	movl	%eax, %edx
	movq	-3000(%rbp), %rdi       # 8-byte Reload
	movq	%rcx, %rsi
	movq	-3032(%rbp), %r10       # 8-byte Reload
	movq	%rcx, -3056(%rbp)       # 8-byte Spill
	movq	%r10, %rcx
	movq	%r10, %r9
	callq	trace_logger_log_int
	addq	$16, %rsp
	movl	-76(%rbp), %eax         # 4-byte Reload
	movl	%eax, %r12d
	movl	%r12d, %edx
	subq	$16, %rsp
	movq	%rsp, %rcx
	movq	$.L.str8, (%rcx)
	movl	$.L.str9, %r12d
	movl	%r12d, %r8d
	movq	-3024(%rbp), %rdi       # 8-byte Reload
	movq	-3056(%rbp), %rsi       # 8-byte Reload
	movq	-3024(%rbp), %rcx       # 8-byte Reload
	movq	-3032(%rbp), %r9        # 8-byte Reload
	callq	trace_logger_log_int
	addq	$16, %rsp
	movl	-76(%rbp), %eax         # 4-byte Reload
	imull	$47, %eax, %r12d
	movl	%r12d, %ecx
	subq	$16, %rsp
	movq	%rsp, %rdx
	movq	$.L.str8, (%rdx)
	movl	$19134, %r12d           # imm = 0x4ABE
	movl	%r12d, %edx
	movq	%rdx, %rdi
	movq	-3056(%rbp), %rsi       # 8-byte Reload
	movq	%rdx, -3064(%rbp)       # 8-byte Spill
	movq	%rcx, %rdx
	movq	-3024(%rbp), %r8        # 8-byte Reload
	movq	%rcx, -3072(%rbp)       # 8-byte Spill
	movq	%r8, %rcx
	movq	-3048(%rbp), %r8        # 8-byte Reload
	movq	-3032(%rbp), %r9        # 8-byte Reload
	callq	trace_logger_log_int
	addq	$16, %rsp
	subq	$16, %rsp
	movq	%rsp, %rcx
	movl	$1, (%rcx)
	movl	$.L.str112, %eax
	movl	%eax, %ecx
	movl	$34, %eax
	movl	%eax, %r8d
	movq	-3040(%rbp), %rdi       # 8-byte Reload
	movq	-2880(%rbp), %rsi       # 8-byte Reload
	movq	-2848(%rbp), %rdx       # 8-byte Reload
	movq	%rcx, -3080(%rbp)       # 8-byte Spill
	movl	-2892(%rbp), %r9d       # 4-byte Reload
	callq	trace_logger_log0
	addq	$16, %rsp
	subq	$16, %rsp
	movq	%rsp, %rcx
	movq	$.L.str8, (%rcx)
	movq	-3024(%rbp), %rdi       # 8-byte Reload
	movq	-3056(%rbp), %rsi       # 8-byte Reload
	movq	-3072(%rbp), %rdx       # 8-byte Reload
	movq	-3024(%rbp), %rcx       # 8-byte Reload
	movq	-3048(%rbp), %r8        # 8-byte Reload
	movq	-3032(%rbp), %r9        # 8-byte Reload
	callq	trace_logger_log_int
	addq	$16, %rsp
	subq	$16, %rsp
	movq	%rsp, %rcx
	movq	$.L.str8, (%rcx)
	movq	-3064(%rbp), %rdi       # 8-byte Reload
	movq	-2992(%rbp), %rsi       # 8-byte Reload
	movq	-3072(%rbp), %rdx       # 8-byte Reload
	movq	-3024(%rbp), %rcx       # 8-byte Reload
	movq	-3080(%rbp), %r8        # 8-byte Reload
	movq	-3032(%rbp), %r9        # 8-byte Reload
	callq	trace_logger_log_int
	addq	$16, %rsp
	subq	$16, %rsp
	movq	%rsp, %rcx
	movl	$1, (%rcx)
	movl	$.L.str113, %eax
	movl	%eax, %ecx
	movl	$26, %eax
	movl	%eax, %r8d
	movq	-3040(%rbp), %rdi       # 8-byte Reload
	movq	-2880(%rbp), %rsi       # 8-byte Reload
	movq	-2848(%rbp), %rdx       # 8-byte Reload
	movl	-2892(%rbp), %r9d       # 4-byte Reload
	callq	trace_logger_log0
	addq	$16, %rsp
	subq	$16, %rsp
	movq	%rsp, %rcx
	movq	$.L.str8, (%rcx)
	movq	-3024(%rbp), %rdi       # 8-byte Reload
	movq	-2992(%rbp), %rsi       # 8-byte Reload
	movq	-3072(%rbp), %rdx       # 8-byte Reload
	movq	-3024(%rbp), %rcx       # 8-byte Reload
	movq	-3080(%rbp), %r8        # 8-byte Reload
	movq	-3032(%rbp), %r9        # 8-byte Reload
	callq	trace_logger_log_int
	addq	$16, %rsp
	movq	-3072(%rbp), %rcx       # 8-byte Reload
	leaq	15(,%rcx,8), %rdx
	andq	$-16, %rdx
	movq	%rsp, %rsi
	subq	%rdx, %rsi
	movq	%rsi, %rsp
	subq	$16, %rsp
	movq	-2936(%rbp), %rdi       # 8-byte Reload
	movq	-2824(%rbp), %rdx       # 8-byte Reload
	movq	%rsi, -3088(%rbp)       # 8-byte Spill
	movq	%rdx, %rsi
	movq	-3088(%rbp), %rdx       # 8-byte Reload
	movq	-2912(%rbp), %rcx       # 8-byte Reload
	movq	-2832(%rbp), %r8        # 8-byte Reload
	movq	-2784(%rbp), %r9        # 8-byte Reload
	movq	-2840(%rbp), %r10       # 8-byte Reload
	movq	%r10, (%rsp)
	callq	trace_logger_log_ptr
	addq	$16, %rsp
.Ltmp67:
	#DEBUG_VALUE: process_data:fft_data <- [RBP+-3088]
	#DEBUG_VALUE: channel <- 0
	.loc	1 59 0                  # feature_extraction.c:59:0
	subq	$16, %rsp
	movq	-2976(%rbp), %rdi       # 8-byte Reload
	movq	-2968(%rbp), %rsi       # 8-byte Reload
	movq	-2944(%rbp), %rdx       # 8-byte Reload
	movq	-2904(%rbp), %rcx       # 8-byte Reload
	movq	-2816(%rbp), %r8        # 8-byte Reload
	movl	-2956(%rbp), %r9d       # 4-byte Reload
	movl	$1, (%rsp)
	callq	trace_logger_log0
	addq	$16, %rsp
	subq	$16, %rsp
	movq	-2888(%rbp), %rdi       # 8-byte Reload
	movq	-2792(%rbp), %rsi       # 8-byte Reload
	movq	-2784(%rbp), %rdx       # 8-byte Reload
	movq	-2784(%rbp), %rcx       # 8-byte Reload
	movq	-2808(%rbp), %r8        # 8-byte Reload
	movq	-2784(%rbp), %r9        # 8-byte Reload
	movq	-2840(%rbp), %r10       # 8-byte Reload
	movq	%r10, (%rsp)
	callq	trace_logger_log_int
	addq	$16, %rsp
	movl	-76(%rbp), %eax         # 4-byte Reload
	movl	%eax, %r12d
	movl	%r12d, %edx
	subq	$16, %rsp
	movq	-2912(%rbp), %rdi       # 8-byte Reload
	movq	-2792(%rbp), %rsi       # 8-byte Reload
	movq	-2912(%rbp), %rcx       # 8-byte Reload
	movq	-2800(%rbp), %r8        # 8-byte Reload
	movq	-2784(%rbp), %r9        # 8-byte Reload
	movq	-2840(%rbp), %r10       # 8-byte Reload
	movq	%r10, (%rsp)
	callq	trace_logger_log_int
	addq	$16, %rsp
	movl	-76(%rbp), %eax         # 4-byte Reload
	cmpl	$0, %eax
	setg	%al
	movb	%al, %cl
	andb	$1, %cl
	movzbl	%cl, %r12d
	movl	%r12d, %edx
	subq	$16, %rsp
	movq	-2936(%rbp), %rdi       # 8-byte Reload
	movq	-2912(%rbp), %rsi       # 8-byte Reload
	movq	-2912(%rbp), %rcx       # 8-byte Reload
	movq	-2904(%rbp), %r8        # 8-byte Reload
	movq	-2784(%rbp), %r9        # 8-byte Reload
	movq	-2840(%rbp), %r10       # 8-byte Reload
	movq	%r10, (%rsp)
	movb	%al, -3089(%rbp)        # 1-byte Spill
	callq	trace_logger_log_int
	addq	$16, %rsp
	subq	$16, %rsp
	movq	-2976(%rbp), %rdi       # 8-byte Reload
	movq	-2968(%rbp), %rsi       # 8-byte Reload
	movq	-2944(%rbp), %rdx       # 8-byte Reload
	movq	-2952(%rbp), %rcx       # 8-byte Reload
	movq	-2888(%rbp), %r8        # 8-byte Reload
	movl	-2956(%rbp), %r9d       # 4-byte Reload
	movl	$1, (%rsp)
	callq	trace_logger_log0
	addq	$16, %rsp
	subq	$16, %rsp
	movq	-2928(%rbp), %rdi       # 8-byte Reload
	movq	-2784(%rbp), %rsi       # 8-byte Reload
	movq	-2784(%rbp), %rdx       # 8-byte Reload
	movq	-2912(%rbp), %rcx       # 8-byte Reload
	movq	-2984(%rbp), %r8        # 8-byte Reload
	movq	-2784(%rbp), %r9        # 8-byte Reload
	movq	-2840(%rbp), %r10       # 8-byte Reload
	movq	%r10, (%rsp)
	callq	trace_logger_log_int
	addq	$16, %rsp
	subq	$16, %rsp
	movq	-2888(%rbp), %rdi       # 8-byte Reload
	movq	-2784(%rbp), %rsi       # 8-byte Reload
	movq	-2784(%rbp), %rdx       # 8-byte Reload
	movq	-2912(%rbp), %rcx       # 8-byte Reload
	movq	-2920(%rbp), %r8        # 8-byte Reload
	movq	-2784(%rbp), %r9        # 8-byte Reload
	movq	-2840(%rbp), %r10       # 8-byte Reload
	movq	%r10, (%rsp)
	callq	trace_logger_log_int
	addq	$16, %rsp
	movb	-3089(%rbp), %al        # 1-byte Reload
	andb	$1, %al
	movzbl	%al, %r12d
	movl	%r12d, %edx
	subq	$16, %rsp
	movq	-2912(%rbp), %rdi       # 8-byte Reload
	movq	-2912(%rbp), %rsi       # 8-byte Reload
	movq	-2912(%rbp), %rcx       # 8-byte Reload
	movq	-2904(%rbp), %r8        # 8-byte Reload
	movq	-2784(%rbp), %r9        # 8-byte Reload
	movq	-2840(%rbp), %r10       # 8-byte Reload
	movq	%r10, (%rsp)
	callq	trace_logger_log_int
	addq	$16, %rsp
	movb	-3089(%rbp), %al        # 1-byte Reload
	testb	$1, %al
	movq	-2784(%rbp), %rcx       # 8-byte Reload
	movq	%rcx, -3104(%rbp)       # 8-byte Spill
	jne	.LBB1_11
.Ltmp68:
# BB#10:                                # %._crit_edge109.thread
	movabsq	$1, %rax
	movabsq	$0, %rcx
	leaq	.L.str120, %r8
	leaq	.L.str8, %rdx
	movabsq	$71, %rdi
	leaq	.L.str50, %rsi
	leaq	.L.str117, %r9
	leaq	.L.str119, %r10
	movabsq	$2, %r11
	movl	$1, %ebx
	movabsq	$19134, %r14            # imm = 0x4ABE
	movabsq	$64, %r15
	leaq	.L.str118, %r12
	movabsq	$32, %r13
	movq	%rax, -3112(%rbp)       # 8-byte Spill
	leaq	.L.str9, %rax
	movq	%rax, -3120(%rbp)       # 8-byte Spill
	movabsq	$69, %rax
	movq	%rax, -3128(%rbp)       # 8-byte Spill
	movabsq	$34, %rax
	.loc	1 69 0                  # feature_extraction.c:69:0
	subq	$16, %rsp
	movq	%rax, -3136(%rbp)       # 8-byte Spill
	movq	-3128(%rbp), %rax       # 8-byte Reload
	movq	%rdi, -3144(%rbp)       # 8-byte Spill
	movq	%rax, %rdi
	movq	%rsi, -3152(%rbp)       # 8-byte Spill
	movq	%rdx, -3160(%rbp)       # 8-byte Spill
	movq	%r9, %rdx
	movq	%rcx, -3168(%rbp)       # 8-byte Spill
	movq	%r12, %rcx
	movq	-3136(%rbp), %rax       # 8-byte Reload
	movq	%r8, -3176(%rbp)        # 8-byte Spill
	movq	%rax, %r8
	movq	%r9, -3184(%rbp)        # 8-byte Spill
	movl	%ebx, %r9d
	movl	$1, (%rsp)
	movq	%r14, -3192(%rbp)       # 8-byte Spill
	movl	%ebx, -3196(%rbp)       # 4-byte Spill
	movq	%r15, -3208(%rbp)       # 8-byte Spill
	movq	%r13, -3216(%rbp)       # 8-byte Spill
	movq	%r12, -3224(%rbp)       # 8-byte Spill
	movq	%r11, -3232(%rbp)       # 8-byte Spill
	movq	%r10, -3240(%rbp)       # 8-byte Spill
	callq	trace_logger_log0
	addq	$16, %rsp
	movl	-76(%rbp), %r9d         # 4-byte Reload
	movl	%r9d, %ebx
	movl	%ebx, %edx
	subq	$16, %rsp
	movq	-3112(%rbp), %rdi       # 8-byte Reload
	movq	-3216(%rbp), %rsi       # 8-byte Reload
	movq	-3112(%rbp), %rcx       # 8-byte Reload
	movq	-3120(%rbp), %r8        # 8-byte Reload
	movq	-3168(%rbp), %r9        # 8-byte Reload
	movq	-3160(%rbp), %rax       # 8-byte Reload
	movq	%rax, (%rsp)
	callq	trace_logger_log_int
	addq	$16, %rsp
	movl	-76(%rbp), %ebx         # 4-byte Reload
	movl	%ebx, %esi
	movl	%esi, %eax
	subq	$16, %rsp
	movq	-3192(%rbp), %rdi       # 8-byte Reload
	movq	-3208(%rbp), %rsi       # 8-byte Reload
	movq	%rax, %rdx
	movq	-3112(%rbp), %rcx       # 8-byte Reload
	movq	-3224(%rbp), %r8        # 8-byte Reload
	movq	-3168(%rbp), %r9        # 8-byte Reload
	movq	-3160(%rbp), %r10       # 8-byte Reload
	movq	%r10, (%rsp)
	movq	%rax, -3248(%rbp)       # 8-byte Spill
	callq	trace_logger_log_int
	addq	$16, %rsp
.Ltmp69:
	#DEBUG_VALUE: process_data:fft_mean <- undef
	#DEBUG_VALUE: process_data:fft_stddev <- undef
	#DEBUG_VALUE: channel <- 0
	.loc	1 71 0                  # feature_extraction.c:71:0
	subq	$16, %rsp
	movq	-3144(%rbp), %rdi       # 8-byte Reload
	movq	-3152(%rbp), %rsi       # 8-byte Reload
	movq	-3184(%rbp), %rdx       # 8-byte Reload
	movq	-3240(%rbp), %rcx       # 8-byte Reload
	movq	-3232(%rbp), %r8        # 8-byte Reload
	movl	-3196(%rbp), %r9d       # 4-byte Reload
	movl	$1, (%rsp)
	callq	trace_logger_log0
	addq	$16, %rsp
	subq	$16, %rsp
	movq	-3112(%rbp), %rdi       # 8-byte Reload
	movq	-3168(%rbp), %rsi       # 8-byte Reload
	movq	-3168(%rbp), %rdx       # 8-byte Reload
	movq	-3112(%rbp), %rcx       # 8-byte Reload
	movq	-3176(%rbp), %r8        # 8-byte Reload
	movq	-3168(%rbp), %r9        # 8-byte Reload
	movq	-3160(%rbp), %rax       # 8-byte Reload
	movq	%rax, (%rsp)
	callq	trace_logger_log_int
	addq	$16, %rsp
	movq	-3248(%rbp), %rax       # 8-byte Reload
	movq	%rax, -3256(%rbp)       # 8-byte Spill
	jmp	.LBB1_28
.Ltmp70:
.LBB1_11:                               # %.preheader106
                                        # =>This Loop Header: Depth=1
                                        #     Child Loop BB1_12 Depth 2
	movq	-3104(%rbp), %rax       # 8-byte Reload
	movabsq	$0, %rcx
	movabsq	$1, %rdx
	leaq	.L.str131, %r8
	leaq	.L.str8, %rsi
	movabsq	$61, %rdi
	leaq	.L.str50, %r9
	leaq	.L.str116, %r10
	leaq	.L.str130, %r11
	movabsq	$2, %rbx
	movl	$1, %r14d
	movabsq	$19134, %r15            # imm = 0x4ABE
	movabsq	$64, %r12
	leaq	.L.str129, %r13
	movq	%rax, -3264(%rbp)       # 8-byte Spill
	movabsq	$32, %rax
	movq	%rax, -3272(%rbp)       # 8-byte Spill
	leaq	.L.str126, %rax
	movq	%rax, -3280(%rbp)       # 8-byte Spill
	movabsq	$35, %rax
	movq	%rax, -3288(%rbp)       # 8-byte Spill
	leaq	.L.str128, %rax
	movq	%rax, -3296(%rbp)       # 8-byte Spill
	leaq	.L.str127, %rax
	movq	%rax, -3304(%rbp)       # 8-byte Spill
	leaq	.L.str7, %rax
	movq	%rax, -3312(%rbp)       # 8-byte Spill
	movabsq	$22, %rax
	movq	%rax, -3320(%rbp)       # 8-byte Spill
	leaq	.L.str121, %rax
	movq	%rax, -3328(%rbp)       # 8-byte Spill
	movabsq	$201863462912, %rax     # imm = 0x2F00000000
	movq	%rax, -3336(%rbp)       # 8-byte Spill
	movabsq	$12, %rax
	movq	%rax, -3344(%rbp)       # 8-byte Spill
	leaq	.L.str125, %rax
	movq	%rax, -3352(%rbp)       # 8-byte Spill
	movabsq	$63, %rax
	movq	%rax, -3360(%rbp)       # 8-byte Spill
	movabsq	$8, %rax
	movq	%rax, -3368(%rbp)       # 8-byte Spill
	leaq	.L.str124, %rax
	movq	%rax, -3376(%rbp)       # 8-byte Spill
	leaq	.L.str14, %rax
	movq	%rax, -3384(%rbp)       # 8-byte Spill
	movabsq	$33, %rax
	movq	%rax, -3392(%rbp)       # 8-byte Spill
	leaq	.L.str123, %rax
	movq	%rax, -3400(%rbp)       # 8-byte Spill
	leaq	.L.str122, %rax
	movq	%rax, -3408(%rbp)       # 8-byte Spill
	leaq	.L.str55, %rax
	movq	%rax, -3416(%rbp)       # 8-byte Spill
	movabsq	$-1, %rax
	movq	%rax, -3424(%rbp)       # 8-byte Spill
	movabsq	$48, %rax
	.loc	1 63 0                  # feature_extraction.c:63:0
.Ltmp71:
	subq	$16, %rsp
	movq	%rax, -3432(%rbp)       # 8-byte Spill
	movq	-3424(%rbp), %rax       # 8-byte Reload
	movq	%rdi, -3440(%rbp)       # 8-byte Spill
	movq	%rax, %rdi
	movq	%rsi, -3448(%rbp)       # 8-byte Spill
	movq	%r9, %rsi
	movq	%rdx, -3456(%rbp)       # 8-byte Spill
	movq	%r10, %rdx
	movq	-3328(%rbp), %rax       # 8-byte Reload
	movq	%rcx, -3464(%rbp)       # 8-byte Spill
	movq	%rax, %rcx
	movq	-3432(%rbp), %rax       # 8-byte Reload
	movq	%r8, -3472(%rbp)        # 8-byte Spill
	movq	%rax, %r8
	movq	%r9, -3480(%rbp)        # 8-byte Spill
	movl	%r14d, %r9d
	movl	$1, (%rsp)
	movl	%r14d, -3484(%rbp)      # 4-byte Spill
	movq	%r15, -3496(%rbp)       # 8-byte Spill
	movq	%rbx, -3504(%rbp)       # 8-byte Spill
	movq	%r12, -3512(%rbp)       # 8-byte Spill
	movq	%r13, -3520(%rbp)       # 8-byte Spill
	movq	%r11, -3528(%rbp)       # 8-byte Spill
	movq	%r10, -3536(%rbp)       # 8-byte Spill
	callq	trace_logger_log0
	addq	$16, %rsp
	subq	$16, %rsp
	movq	-3504(%rbp), %rdi       # 8-byte Reload
	movq	-3512(%rbp), %rsi       # 8-byte Reload
	movq	-3464(%rbp), %rdx       # 8-byte Reload
	movq	-3464(%rbp), %rcx       # 8-byte Reload
	movq	-3312(%rbp), %r8        # 8-byte Reload
	movq	-3456(%rbp), %r9        # 8-byte Reload
	movq	-3416(%rbp), %rax       # 8-byte Reload
	movq	%rax, (%rsp)
	callq	trace_logger_log_int
	addq	$16, %rsp
	subq	$16, %rsp
	movq	-3456(%rbp), %rdi       # 8-byte Reload
	movq	-3512(%rbp), %rsi       # 8-byte Reload
	movq	-3464(%rbp), %rdx       # 8-byte Reload
	movq	-3456(%rbp), %rcx       # 8-byte Reload
	movq	-3408(%rbp), %r8        # 8-byte Reload
	movq	-3456(%rbp), %r9        # 8-byte Reload
	movq	-3400(%rbp), %rax       # 8-byte Reload
	movq	%rax, (%rsp)
	callq	trace_logger_log_int
	addq	$16, %rsp
	subq	$16, %rsp
	movq	-3496(%rbp), %rdi       # 8-byte Reload
	movq	-3512(%rbp), %rsi       # 8-byte Reload
	movq	-3264(%rbp), %rdx       # 8-byte Reload
	movq	-3456(%rbp), %rcx       # 8-byte Reload
	movq	-3328(%rbp), %r8        # 8-byte Reload
	movq	-3464(%rbp), %r9        # 8-byte Reload
	movq	-3400(%rbp), %rax       # 8-byte Reload
	movq	%rax, (%rsp)
	callq	trace_logger_log_int
	addq	$16, %rsp
	subq	$16, %rsp
	movq	-3360(%rbp), %rdi       # 8-byte Reload
	movq	-3480(%rbp), %rsi       # 8-byte Reload
	movq	-3536(%rbp), %rdx       # 8-byte Reload
	movq	-3376(%rbp), %rcx       # 8-byte Reload
	movq	-3392(%rbp), %r8        # 8-byte Reload
	movl	-3484(%rbp), %r9d       # 4-byte Reload
	movl	$1, (%rsp)
	callq	trace_logger_log0
	addq	$16, %rsp
	subq	$16, %rsp
	movq	-3456(%rbp), %rdi       # 8-byte Reload
	movq	-3512(%rbp), %rsi       # 8-byte Reload
	movq	-3264(%rbp), %rdx       # 8-byte Reload
	movq	-3456(%rbp), %rcx       # 8-byte Reload
	movq	-3328(%rbp), %r8        # 8-byte Reload
	movq	-3464(%rbp), %r9        # 8-byte Reload
	movq	-3448(%rbp), %rax       # 8-byte Reload
	movq	%rax, (%rsp)
	callq	trace_logger_log_int
	addq	$16, %rsp
	movq	-3264(%rbp), %rax       # 8-byte Reload
	movl	%eax, %r14d
	movl	%r14d, %esi
	movl	%esi, %edx
	subq	$16, %rsp
	movq	-3496(%rbp), %rdi       # 8-byte Reload
	movq	-3272(%rbp), %rsi       # 8-byte Reload
	movq	-3456(%rbp), %rcx       # 8-byte Reload
	movq	-3376(%rbp), %r8        # 8-byte Reload
	movq	-3464(%rbp), %r9        # 8-byte Reload
	movq	-3448(%rbp), %r10       # 8-byte Reload
	movq	%r10, (%rsp)
	movl	%r14d, -3540(%rbp)      # 4-byte Spill
	callq	trace_logger_log_int
	addq	$16, %rsp
	subq	$16, %rsp
	movq	-3360(%rbp), %rdi       # 8-byte Reload
	movq	-3480(%rbp), %rsi       # 8-byte Reload
	movq	-3536(%rbp), %rdx       # 8-byte Reload
	movq	-3352(%rbp), %rcx       # 8-byte Reload
	movq	-3344(%rbp), %r8        # 8-byte Reload
	movl	-3484(%rbp), %r9d       # 4-byte Reload
	movl	$1, (%rsp)
	callq	trace_logger_log0
	addq	$16, %rsp
	movl	-248(%rbp), %r9d        # 4-byte Reload
	movl	%r9d, %r14d
	movl	%r14d, %edx
	subq	$16, %rsp
	movq	-3504(%rbp), %rdi       # 8-byte Reload
	movq	-3272(%rbp), %rsi       # 8-byte Reload
	movq	-3456(%rbp), %rcx       # 8-byte Reload
	movq	-3384(%rbp), %r8        # 8-byte Reload
	movq	-3464(%rbp), %r9        # 8-byte Reload
	movq	-3448(%rbp), %rax       # 8-byte Reload
	movq	%rax, (%rsp)
	callq	trace_logger_log_int
	addq	$16, %rsp
	movl	-3540(%rbp), %r14d      # 4-byte Reload
	movl	%r14d, %esi
	movl	%esi, %edx
	subq	$16, %rsp
	movq	-3456(%rbp), %rdi       # 8-byte Reload
	movq	-3272(%rbp), %rsi       # 8-byte Reload
	movq	-3456(%rbp), %rcx       # 8-byte Reload
	movq	-3376(%rbp), %r8        # 8-byte Reload
	movq	-3464(%rbp), %r9        # 8-byte Reload
	movq	-3448(%rbp), %rax       # 8-byte Reload
	movq	%rax, (%rsp)
	callq	trace_logger_log_int
	addq	$16, %rsp
	movl	-3540(%rbp), %r14d      # 4-byte Reload
	movl	-248(%rbp), %esi        # 4-byte Reload
	imull	%esi, %r14d
	movl	%r14d, %esi
	movl	%esi, %edx
	subq	$16, %rsp
	movq	-3496(%rbp), %rdi       # 8-byte Reload
	movq	-3272(%rbp), %rsi       # 8-byte Reload
	movq	-3456(%rbp), %rcx       # 8-byte Reload
	movq	-3352(%rbp), %r8        # 8-byte Reload
	movq	-3464(%rbp), %r9        # 8-byte Reload
	movq	-3448(%rbp), %rax       # 8-byte Reload
	movq	%rax, (%rsp)
	movl	%r14d, -3544(%rbp)      # 4-byte Spill
	callq	trace_logger_log_int
	addq	$16, %rsp
	subq	$16, %rsp
	movq	-3360(%rbp), %rdi       # 8-byte Reload
	movq	-3480(%rbp), %rsi       # 8-byte Reload
	movq	-3536(%rbp), %rdx       # 8-byte Reload
	movq	-3280(%rbp), %rcx       # 8-byte Reload
	movq	-3368(%rbp), %r8        # 8-byte Reload
	movl	-3484(%rbp), %r9d       # 4-byte Reload
	movl	$1, (%rsp)
	callq	trace_logger_log0
	addq	$16, %rsp
	subq	$16, %rsp
	movq	-3504(%rbp), %rdi       # 8-byte Reload
	movq	-3272(%rbp), %rsi       # 8-byte Reload
	movq	-3456(%rbp), %rdx       # 8-byte Reload
	movq	-3464(%rbp), %rcx       # 8-byte Reload
	movq	-3312(%rbp), %r8        # 8-byte Reload
	movq	-3464(%rbp), %r9        # 8-byte Reload
	movq	-3448(%rbp), %rax       # 8-byte Reload
	movq	%rax, (%rsp)
	callq	trace_logger_log_int
	addq	$16, %rsp
	movl	-3544(%rbp), %r14d      # 4-byte Reload
	movl	%r14d, %esi
	movl	%esi, %edx
	subq	$16, %rsp
	movq	-3456(%rbp), %rdi       # 8-byte Reload
	movq	-3272(%rbp), %rsi       # 8-byte Reload
	movq	-3456(%rbp), %rcx       # 8-byte Reload
	movq	-3352(%rbp), %r8        # 8-byte Reload
	movq	-3464(%rbp), %r9        # 8-byte Reload
	movq	-3448(%rbp), %rax       # 8-byte Reload
	movq	%rax, (%rsp)
	callq	trace_logger_log_int
	addq	$16, %rsp
	movl	-3544(%rbp), %r14d      # 4-byte Reload
	addl	$1, %r14d
.Ltmp72:
	.loc	1 61 0                  # feature_extraction.c:61:0
	movl	%r14d, %esi
	movl	%esi, %edx
	subq	$16, %rsp
	movq	-3496(%rbp), %rdi       # 8-byte Reload
	movq	-3272(%rbp), %rsi       # 8-byte Reload
	movq	-3456(%rbp), %rcx       # 8-byte Reload
	movq	-3280(%rbp), %r8        # 8-byte Reload
	movq	-3464(%rbp), %r9        # 8-byte Reload
	movq	-3448(%rbp), %rax       # 8-byte Reload
	movq	%rax, (%rsp)
	movl	%r14d, -3548(%rbp)      # 4-byte Spill
	callq	trace_logger_log_int
	addq	$16, %rsp
	subq	$16, %rsp
	movq	-3440(%rbp), %rdi       # 8-byte Reload
	movq	-3480(%rbp), %rsi       # 8-byte Reload
	movq	-3536(%rbp), %rdx       # 8-byte Reload
	movq	-3304(%rbp), %rcx       # 8-byte Reload
	movq	-3344(%rbp), %r8        # 8-byte Reload
	movl	-3484(%rbp), %r9d       # 4-byte Reload
	movl	$1, (%rsp)
	callq	trace_logger_log0
	addq	$16, %rsp
	subq	$16, %rsp
	movq	-3504(%rbp), %rdi       # 8-byte Reload
	movq	-3512(%rbp), %rsi       # 8-byte Reload
	movq	-3336(%rbp), %rdx       # 8-byte Reload
	movq	-3464(%rbp), %rcx       # 8-byte Reload
	movq	-3312(%rbp), %r8        # 8-byte Reload
	movq	-3464(%rbp), %r9        # 8-byte Reload
	movq	-3448(%rbp), %rax       # 8-byte Reload
	movq	%rax, (%rsp)
	callq	trace_logger_log_int
	addq	$16, %rsp
	subq	$16, %rsp
	movq	-3456(%rbp), %rdi       # 8-byte Reload
	movq	-3512(%rbp), %rsi       # 8-byte Reload
	movq	-3264(%rbp), %rdx       # 8-byte Reload
	movq	-3456(%rbp), %rcx       # 8-byte Reload
	movq	-3328(%rbp), %r8        # 8-byte Reload
	movq	-3464(%rbp), %r9        # 8-byte Reload
	movq	-3448(%rbp), %rax       # 8-byte Reload
	movq	%rax, (%rsp)
	callq	trace_logger_log_int
	addq	$16, %rsp
	movabsq	$201863462912, %rax     # imm = 0x2F00000000
	movq	-3264(%rbp), %rcx       # 8-byte Reload
	imulq	%rax, %rcx
	subq	$16, %rsp
	movq	-3496(%rbp), %rdi       # 8-byte Reload
	movq	-3512(%rbp), %rsi       # 8-byte Reload
	movq	%rcx, %rdx
	movq	-3456(%rbp), %rax       # 8-byte Reload
	movq	%rcx, -3560(%rbp)       # 8-byte Spill
	movq	%rax, %rcx
	movq	-3304(%rbp), %r8        # 8-byte Reload
	movq	-3464(%rbp), %r9        # 8-byte Reload
	movq	-3448(%rbp), %r10       # 8-byte Reload
	movq	%r10, (%rsp)
	callq	trace_logger_log_int
	addq	$16, %rsp
	subq	$16, %rsp
	movq	-3440(%rbp), %rdi       # 8-byte Reload
	movq	-3480(%rbp), %rsi       # 8-byte Reload
	movq	-3536(%rbp), %rdx       # 8-byte Reload
	movq	-3296(%rbp), %rcx       # 8-byte Reload
	movq	-3320(%rbp), %r8        # 8-byte Reload
	movl	-3484(%rbp), %r9d       # 4-byte Reload
	movl	$1, (%rsp)
	callq	trace_logger_log0
	addq	$16, %rsp
	subq	$16, %rsp
	movq	-3504(%rbp), %rdi       # 8-byte Reload
	movq	-3512(%rbp), %rsi       # 8-byte Reload
	movq	-3272(%rbp), %rdx       # 8-byte Reload
	movq	-3464(%rbp), %rcx       # 8-byte Reload
	movq	-3312(%rbp), %r8        # 8-byte Reload
	movq	-3464(%rbp), %r9        # 8-byte Reload
	movq	-3448(%rbp), %rax       # 8-byte Reload
	movq	%rax, (%rsp)
	callq	trace_logger_log_int
	addq	$16, %rsp
	subq	$16, %rsp
	movq	-3456(%rbp), %rdi       # 8-byte Reload
	movq	-3512(%rbp), %rsi       # 8-byte Reload
	movq	-3560(%rbp), %rdx       # 8-byte Reload
	movq	-3456(%rbp), %rcx       # 8-byte Reload
	movq	-3304(%rbp), %r8        # 8-byte Reload
	movq	-3464(%rbp), %r9        # 8-byte Reload
	movq	-3448(%rbp), %rax       # 8-byte Reload
	movq	%rax, (%rsp)
	callq	trace_logger_log_int
	addq	$16, %rsp
	movq	-3560(%rbp), %rax       # 8-byte Reload
	sarq	$32, %rax
	subq	$16, %rsp
	movq	-3496(%rbp), %rdi       # 8-byte Reload
	movq	-3512(%rbp), %rsi       # 8-byte Reload
	movq	%rax, %rdx
	movq	-3456(%rbp), %rcx       # 8-byte Reload
	movq	-3296(%rbp), %r8        # 8-byte Reload
	movq	-3464(%rbp), %r9        # 8-byte Reload
	movq	-3448(%rbp), %r10       # 8-byte Reload
	movq	%r10, (%rsp)
	movq	%rax, -3568(%rbp)       # 8-byte Spill
	callq	trace_logger_log_int
	addq	$16, %rsp
	subq	$16, %rsp
	movq	-3440(%rbp), %rdi       # 8-byte Reload
	movq	-3480(%rbp), %rsi       # 8-byte Reload
	movq	-3536(%rbp), %rdx       # 8-byte Reload
	movq	-3520(%rbp), %rcx       # 8-byte Reload
	movq	-3288(%rbp), %r8        # 8-byte Reload
	movl	-3484(%rbp), %r9d       # 4-byte Reload
	movl	$1, (%rsp)
	callq	trace_logger_log0
	addq	$16, %rsp
	movl	-3548(%rbp), %r9d       # 4-byte Reload
	movl	%r9d, %r14d
	movl	%r14d, %edx
	subq	$16, %rsp
	movq	-3456(%rbp), %rdi       # 8-byte Reload
	movq	-3272(%rbp), %rsi       # 8-byte Reload
	movq	-3456(%rbp), %rcx       # 8-byte Reload
	movq	-3280(%rbp), %r8        # 8-byte Reload
	movq	-3464(%rbp), %r9        # 8-byte Reload
	movq	-3448(%rbp), %rax       # 8-byte Reload
	movq	%rax, (%rsp)
	callq	trace_logger_log_int
	addq	$16, %rsp
	movl	-3548(%rbp), %r14d      # 4-byte Reload
	movslq	%r14d, %rax
	subq	$16, %rsp
	movq	-3496(%rbp), %rdi       # 8-byte Reload
	movq	-3512(%rbp), %rsi       # 8-byte Reload
	movq	%rax, %rdx
	movq	-3456(%rbp), %rcx       # 8-byte Reload
	movq	-3520(%rbp), %r8        # 8-byte Reload
	movq	-3464(%rbp), %r9        # 8-byte Reload
	movq	-3448(%rbp), %r10       # 8-byte Reload
	movq	%r10, (%rsp)
	movq	%rax, -3576(%rbp)       # 8-byte Spill
	callq	trace_logger_log_int
	addq	$16, %rsp
	subq	$16, %rsp
	movq	-3440(%rbp), %rdi       # 8-byte Reload
	movq	-3480(%rbp), %rsi       # 8-byte Reload
	movq	-3536(%rbp), %rdx       # 8-byte Reload
	movq	-3528(%rbp), %rcx       # 8-byte Reload
	movq	-3504(%rbp), %r8        # 8-byte Reload
	movl	-3484(%rbp), %r9d       # 4-byte Reload
	movl	$1, (%rsp)
	callq	trace_logger_log0
	addq	$16, %rsp
	subq	$16, %rsp
	movq	-3456(%rbp), %rdi       # 8-byte Reload
	movq	-3464(%rbp), %rsi       # 8-byte Reload
	movq	-3464(%rbp), %rdx       # 8-byte Reload
	movq	-3456(%rbp), %rcx       # 8-byte Reload
	movq	-3472(%rbp), %r8        # 8-byte Reload
	movq	-3464(%rbp), %r9        # 8-byte Reload
	movq	-3448(%rbp), %rax       # 8-byte Reload
	movq	%rax, (%rsp)
	callq	trace_logger_log_int
	addq	$16, %rsp
	movq	-3464(%rbp), %rax       # 8-byte Reload
	movq	%rax, -3584(%rbp)       # 8-byte Spill
.LBB1_12:                               #   Parent Loop BB1_11 Depth=1
                                        # =>  This Inner Loop Header: Depth=2
	movq	-3584(%rbp), %rax       # 8-byte Reload
	movabsq	$1, %rcx
	movabsq	$64, %rdx
	leaq	.L.str143, %rsi
	movabsq	$0, %rdi
	leaq	.L.str8, %r8
	movabsq	$2, %r9
	leaq	log10, %r10
	leaq	.L.str146, %r11
	movabsq	$65, %rbx
	leaq	.L.str50, %r14
	leaq	.L.str131, %r15
	leaq	.L.str145, %r12
	movabsq	$49, %r13
	movq	%rsi, -3592(%rbp)       # 8-byte Spill
	movl	$1, %esi
	movq	%rax, -3600(%rbp)       # 8-byte Spill
	movabsq	$19134, %rax            # imm = 0x4ABE
	movq	%rax, -3608(%rbp)       # 8-byte Spill
	leaq	.L.str142, %rax
	movq	%rax, -3616(%rbp)       # 8-byte Spill
	leaq	sqrt, %rax
	movq	%rax, -3624(%rbp)       # 8-byte Spill
	leaq	.L.str144, %rax
	movq	%rax, -3632(%rbp)       # 8-byte Spill
	movabsq	$32, %rax
	movq	%rax, -3640(%rbp)       # 8-byte Spill
	leaq	.L.str141, %rax
	movq	%rax, -3648(%rbp)       # 8-byte Spill
	movabsq	$41, %rax
	movq	%rax, -3656(%rbp)       # 8-byte Spill
	leaq	.L.str139, %rax
	movq	%rax, -3664(%rbp)       # 8-byte Spill
	leaq	.L.str140, %rax
	movq	%rax, -3672(%rbp)       # 8-byte Spill
	movabsq	$9, %rax
	movq	%rax, -3680(%rbp)       # 8-byte Spill
	leaq	.L.str138, %rax
	movq	%rax, -3688(%rbp)       # 8-byte Spill
	movabsq	$13, %rax
	movq	%rax, -3696(%rbp)       # 8-byte Spill
	leaq	.L.str136, %rax
	movq	%rax, -3704(%rbp)       # 8-byte Spill
	leaq	.L.str137, %rax
	movq	%rax, -3712(%rbp)       # 8-byte Spill
	movabsq	$27, %rax
	movq	%rax, -3720(%rbp)       # 8-byte Spill
	leaq	.L.str31, %rax
	movq	%rax, -3728(%rbp)       # 8-byte Spill
	leaq	.L.str134, %rax
	movq	%rax, -3736(%rbp)       # 8-byte Spill
	movabsq	$3, %rax
	movq	%rax, -3744(%rbp)       # 8-byte Spill
	leaq	.L.str7, %rax
	movq	%rax, -3752(%rbp)       # 8-byte Spill
	movabsq	$29, %rax
	movq	%rax, -3760(%rbp)       # 8-byte Spill
	leaq	.L.str135, %rax
	movq	%rax, -3768(%rbp)       # 8-byte Spill
	leaq	.L.str129, %rax
	movq	%rax, -3776(%rbp)       # 8-byte Spill
	leaq	.L.str132, %rax
	movq	%rax, -3784(%rbp)       # 8-byte Spill
	movabsq	$63, %rax
	movq	%rax, -3792(%rbp)       # 8-byte Spill
	movabsq	$8, %rax
	movq	%rax, -3800(%rbp)       # 8-byte Spill
	leaq	.L.str116, %rax
	movq	%rax, -3808(%rbp)       # 8-byte Spill
	leaq	.L.str133, %rax
	movq	%rax, -3816(%rbp)       # 8-byte Spill
	movabsq	$-1, %rax
	movq	%rax, -3824(%rbp)       # 8-byte Spill
	movabsq	$48, %rax
	.loc	1 63 0                  # feature_extraction.c:63:0
.Ltmp73:
	subq	$16, %rsp
	movq	%rax, -3832(%rbp)       # 8-byte Spill
	movq	-3824(%rbp), %rax       # 8-byte Reload
	movq	%rdi, -3840(%rbp)       # 8-byte Spill
	movq	%rax, %rdi
	movl	%esi, -3844(%rbp)       # 4-byte Spill
	movq	%r14, %rsi
	movq	%rdx, -3856(%rbp)       # 8-byte Spill
	movq	%r15, %rdx
	movq	-3784(%rbp), %rax       # 8-byte Reload
	movq	%rcx, -3864(%rbp)       # 8-byte Spill
	movq	%rax, %rcx
	movq	-3832(%rbp), %rax       # 8-byte Reload
	movq	%r8, -3872(%rbp)        # 8-byte Spill
	movq	%rax, %r8
	movl	-3844(%rbp), %eax       # 4-byte Reload
	movq	%r9, -3880(%rbp)        # 8-byte Spill
	movl	%eax, %r9d
	movl	$1, (%rsp)
	movq	%r14, -3888(%rbp)       # 8-byte Spill
	movq	%r15, -3896(%rbp)       # 8-byte Spill
	movq	%r12, -3904(%rbp)       # 8-byte Spill
	movq	%r13, -3912(%rbp)       # 8-byte Spill
	movq	%rbx, -3920(%rbp)       # 8-byte Spill
	movq	%r11, -3928(%rbp)       # 8-byte Spill
	movq	%r10, -3936(%rbp)       # 8-byte Spill
	callq	trace_logger_log0
	addq	$16, %rsp
	subq	$16, %rsp
	movq	-3880(%rbp), %rdi       # 8-byte Reload
	movq	-3856(%rbp), %rsi       # 8-byte Reload
	movq	-3840(%rbp), %rdx       # 8-byte Reload
	movq	-3864(%rbp), %rcx       # 8-byte Reload
	movq	-3816(%rbp), %r8        # 8-byte Reload
	movq	-3864(%rbp), %r9        # 8-byte Reload
	movq	-3896(%rbp), %r10       # 8-byte Reload
	movq	%r10, (%rsp)
	callq	trace_logger_log_int
	addq	$16, %rsp
	subq	$16, %rsp
	movq	-3864(%rbp), %rdi       # 8-byte Reload
	movq	-3856(%rbp), %rsi       # 8-byte Reload
	movq	-3840(%rbp), %rdx       # 8-byte Reload
	movq	-3840(%rbp), %rcx       # 8-byte Reload
	movq	-3752(%rbp), %r8        # 8-byte Reload
	movq	-3864(%rbp), %r9        # 8-byte Reload
	movq	-3808(%rbp), %r10       # 8-byte Reload
	movq	%r10, (%rsp)
	callq	trace_logger_log_int
	addq	$16, %rsp
	subq	$16, %rsp
	movq	-3608(%rbp), %rdi       # 8-byte Reload
	movq	-3856(%rbp), %rsi       # 8-byte Reload
	movq	-3600(%rbp), %rdx       # 8-byte Reload
	movq	-3864(%rbp), %rcx       # 8-byte Reload
	movq	-3784(%rbp), %r8        # 8-byte Reload
	movq	-3840(%rbp), %r9        # 8-byte Reload
	movq	-3808(%rbp), %r10       # 8-byte Reload
	movq	%r10, (%rsp)
	callq	trace_logger_log_int
	addq	$16, %rsp
	subq	$16, %rsp
	movq	-3792(%rbp), %rdi       # 8-byte Reload
	movq	-3888(%rbp), %rsi       # 8-byte Reload
	movq	-3896(%rbp), %rdx       # 8-byte Reload
	movq	-3736(%rbp), %rcx       # 8-byte Reload
	movq	-3800(%rbp), %r8        # 8-byte Reload
	movl	-3844(%rbp), %r9d       # 4-byte Reload
	movl	$1, (%rsp)
	callq	trace_logger_log0
	addq	$16, %rsp
	subq	$16, %rsp
	movq	-3880(%rbp), %rdi       # 8-byte Reload
	movq	-3856(%rbp), %rsi       # 8-byte Reload
	movq	-3600(%rbp), %rdx       # 8-byte Reload
	movq	-3864(%rbp), %rcx       # 8-byte Reload
	movq	-3784(%rbp), %r8        # 8-byte Reload
	movq	-3840(%rbp), %r9        # 8-byte Reload
	movq	-3872(%rbp), %r10       # 8-byte Reload
	movq	%r10, (%rsp)
	callq	trace_logger_log_int
	addq	$16, %rsp
	subq	$16, %rsp
	movq	-3864(%rbp), %rdi       # 8-byte Reload
	movq	-3856(%rbp), %rsi       # 8-byte Reload
	movq	-3576(%rbp), %rdx       # 8-byte Reload
	movq	-3864(%rbp), %rcx       # 8-byte Reload
	movq	-3776(%rbp), %r8        # 8-byte Reload
	movq	-3840(%rbp), %r9        # 8-byte Reload
	movq	-3872(%rbp), %r10       # 8-byte Reload
	movq	%r10, (%rsp)
	callq	trace_logger_log_int
	addq	$16, %rsp
	movq	-3576(%rbp), %rcx       # 8-byte Reload
	movq	-3600(%rbp), %rdx       # 8-byte Reload
	addq	%rdx, %rcx
	.loc	1 64 0                  # feature_extraction.c:64:0
	subq	$16, %rsp
	movq	-3608(%rbp), %rdi       # 8-byte Reload
	movq	-3856(%rbp), %rsi       # 8-byte Reload
	movq	%rcx, %rdx
	movq	-3864(%rbp), %r8        # 8-byte Reload
	movq	%rcx, -3944(%rbp)       # 8-byte Spill
	movq	%r8, %rcx
	movq	-3736(%rbp), %r8        # 8-byte Reload
	movq	-3840(%rbp), %r9        # 8-byte Reload
	movq	-3872(%rbp), %r10       # 8-byte Reload
	movq	%r10, (%rsp)
	callq	trace_logger_log_int
	addq	$16, %rsp
	subq	$16, %rsp
	movq	-3856(%rbp), %rdi       # 8-byte Reload
	movq	-3888(%rbp), %rsi       # 8-byte Reload
	movq	-3896(%rbp), %rdx       # 8-byte Reload
	movq	-3768(%rbp), %rcx       # 8-byte Reload
	movq	-3760(%rbp), %r8        # 8-byte Reload
	movl	-3844(%rbp), %r9d       # 4-byte Reload
	movl	$1, (%rsp)
	callq	trace_logger_log0
	addq	$16, %rsp
	subq	$16, %rsp
	movq	-3744(%rbp), %rdi       # 8-byte Reload
	movq	-3640(%rbp), %rsi       # 8-byte Reload
	movq	-3840(%rbp), %rdx       # 8-byte Reload
	movq	-3840(%rbp), %rcx       # 8-byte Reload
	movq	-3752(%rbp), %r8        # 8-byte Reload
	movq	-3840(%rbp), %r9        # 8-byte Reload
	movq	-3872(%rbp), %r10       # 8-byte Reload
	movq	%r10, (%rsp)
	callq	trace_logger_log_int
	addq	$16, %rsp
	subq	$16, %rsp
	movq	-3880(%rbp), %rdi       # 8-byte Reload
	movq	-3856(%rbp), %rsi       # 8-byte Reload
	movq	-3944(%rbp), %rdx       # 8-byte Reload
	movq	-3864(%rbp), %rcx       # 8-byte Reload
	movq	-3736(%rbp), %r8        # 8-byte Reload
	movq	-3840(%rbp), %r9        # 8-byte Reload
	movq	-3872(%rbp), %r10       # 8-byte Reload
	movq	%r10, (%rsp)
	callq	trace_logger_log_int
	addq	$16, %rsp
	subq	$16, %rsp
	movq	-3864(%rbp), %rdi       # 8-byte Reload
	movq	-3856(%rbp), %rsi       # 8-byte Reload
	movq	-720(%rbp), %rdx        # 8-byte Reload
	movq	-3864(%rbp), %rcx       # 8-byte Reload
	movq	-3728(%rbp), %r8        # 8-byte Reload
	movq	-3840(%rbp), %r9        # 8-byte Reload
	movq	-3872(%rbp), %r10       # 8-byte Reload
	movq	%r10, (%rsp)
	callq	trace_logger_log_ptr
	addq	$16, %rsp
	movq	-3944(%rbp), %rcx       # 8-byte Reload
	shlq	$3, %rcx
	movq	-720(%rbp), %rdx        # 8-byte Reload
	addq	%rcx, %rdx
	subq	$16, %rsp
	movq	-3608(%rbp), %rdi       # 8-byte Reload
	movq	-3856(%rbp), %rsi       # 8-byte Reload
	movq	%rdx, -3952(%rbp)       # 8-byte Spill
	movq	-3864(%rbp), %rcx       # 8-byte Reload
	movq	-3768(%rbp), %r8        # 8-byte Reload
	movq	-3840(%rbp), %r9        # 8-byte Reload
	movq	-3872(%rbp), %r10       # 8-byte Reload
	movq	%r10, (%rsp)
	callq	trace_logger_log_ptr
	addq	$16, %rsp
	subq	$16, %rsp
	movq	-3856(%rbp), %rdi       # 8-byte Reload
	movq	-3888(%rbp), %rsi       # 8-byte Reload
	movq	-3896(%rbp), %rdx       # 8-byte Reload
	movq	-3704(%rbp), %rcx       # 8-byte Reload
	movq	-3720(%rbp), %r8        # 8-byte Reload
	movl	-3844(%rbp), %r9d       # 4-byte Reload
	movl	$1, (%rsp)
	callq	trace_logger_log0
	addq	$16, %rsp
	subq	$16, %rsp
	movq	-3864(%rbp), %rdi       # 8-byte Reload
	movq	-3856(%rbp), %rsi       # 8-byte Reload
	movq	-3952(%rbp), %rdx       # 8-byte Reload
	movq	-3864(%rbp), %rcx       # 8-byte Reload
	movq	-3768(%rbp), %r8        # 8-byte Reload
	movq	-3840(%rbp), %r9        # 8-byte Reload
	movq	-3872(%rbp), %r10       # 8-byte Reload
	movq	%r10, (%rsp)
	callq	trace_logger_log_ptr
	addq	$16, %rsp
	movq	-720(%rbp), %rcx        # 8-byte Reload
	movq	-3944(%rbp), %rdx       # 8-byte Reload
	vmovss	(%rcx,%rdx,8), %xmm0
	cvtss2sd	%xmm0, %xmm1
	movq	-3608(%rbp), %rdi       # 8-byte Reload
	movq	-3640(%rbp), %rsi       # 8-byte Reload
	vmovss	%xmm0, -3956(%rbp)      # 4-byte Spill
	vmovaps	%xmm1, %xmm0
	movq	-3864(%rbp), %rdx       # 8-byte Reload
	movq	-3704(%rbp), %rcx       # 8-byte Reload
	movq	-3840(%rbp), %r8        # 8-byte Reload
	movq	-3872(%rbp), %r9        # 8-byte Reload
	callq	trace_logger_log_double
	subq	$16, %rsp
	movq	-3856(%rbp), %rdi       # 8-byte Reload
	movq	-3888(%rbp), %rsi       # 8-byte Reload
	movq	-3896(%rbp), %rdx       # 8-byte Reload
	movq	-3712(%rbp), %rcx       # 8-byte Reload
	movq	-3760(%rbp), %r8        # 8-byte Reload
	movl	-3844(%rbp), %r9d       # 4-byte Reload
	movl	$1, (%rsp)
	callq	trace_logger_log0
	addq	$16, %rsp
	subq	$16, %rsp
	movq	-3744(%rbp), %rdi       # 8-byte Reload
	movq	-3640(%rbp), %rsi       # 8-byte Reload
	movq	-3864(%rbp), %rdx       # 8-byte Reload
	movq	-3840(%rbp), %rcx       # 8-byte Reload
	movq	-3752(%rbp), %r8        # 8-byte Reload
	movq	-3840(%rbp), %r9        # 8-byte Reload
	movq	-3872(%rbp), %r10       # 8-byte Reload
	movq	%r10, (%rsp)
	callq	trace_logger_log_int
	addq	$16, %rsp
	subq	$16, %rsp
	movq	-3880(%rbp), %rdi       # 8-byte Reload
	movq	-3856(%rbp), %rsi       # 8-byte Reload
	movq	-3944(%rbp), %rdx       # 8-byte Reload
	movq	-3864(%rbp), %rcx       # 8-byte Reload
	movq	-3736(%rbp), %r8        # 8-byte Reload
	movq	-3840(%rbp), %r9        # 8-byte Reload
	movq	-3872(%rbp), %r10       # 8-byte Reload
	movq	%r10, (%rsp)
	callq	trace_logger_log_int
	addq	$16, %rsp
	subq	$16, %rsp
	movq	-3864(%rbp), %rdi       # 8-byte Reload
	movq	-3856(%rbp), %rsi       # 8-byte Reload
	movq	-720(%rbp), %rdx        # 8-byte Reload
	movq	-3864(%rbp), %rcx       # 8-byte Reload
	movq	-3728(%rbp), %r8        # 8-byte Reload
	movq	-3840(%rbp), %r9        # 8-byte Reload
	movq	-3872(%rbp), %r10       # 8-byte Reload
	movq	%r10, (%rsp)
	callq	trace_logger_log_ptr
	addq	$16, %rsp
	movq	-3944(%rbp), %rcx       # 8-byte Reload
	shlq	$3, %rcx
	movq	-720(%rbp), %rdx        # 8-byte Reload
	addq	%rcx, %rdx
	addq	$4, %rdx
	subq	$16, %rsp
	movq	-3608(%rbp), %rdi       # 8-byte Reload
	movq	-3856(%rbp), %rsi       # 8-byte Reload
	movq	%rdx, -3968(%rbp)       # 8-byte Spill
	movq	-3864(%rbp), %rcx       # 8-byte Reload
	movq	-3712(%rbp), %r8        # 8-byte Reload
	movq	-3840(%rbp), %r9        # 8-byte Reload
	movq	-3872(%rbp), %r10       # 8-byte Reload
	movq	%r10, (%rsp)
	callq	trace_logger_log_ptr
	addq	$16, %rsp
	subq	$16, %rsp
	movq	-3856(%rbp), %rdi       # 8-byte Reload
	movq	-3888(%rbp), %rsi       # 8-byte Reload
	movq	-3896(%rbp), %rdx       # 8-byte Reload
	movq	-3688(%rbp), %rcx       # 8-byte Reload
	movq	-3720(%rbp), %r8        # 8-byte Reload
	movl	-3844(%rbp), %r9d       # 4-byte Reload
	movl	$1, (%rsp)
	callq	trace_logger_log0
	addq	$16, %rsp
	subq	$16, %rsp
	movq	-3864(%rbp), %rdi       # 8-byte Reload
	movq	-3856(%rbp), %rsi       # 8-byte Reload
	movq	-3968(%rbp), %rdx       # 8-byte Reload
	movq	-3864(%rbp), %rcx       # 8-byte Reload
	movq	-3712(%rbp), %r8        # 8-byte Reload
	movq	-3840(%rbp), %r9        # 8-byte Reload
	movq	-3872(%rbp), %r10       # 8-byte Reload
	movq	%r10, (%rsp)
	callq	trace_logger_log_ptr
	addq	$16, %rsp
	movq	-720(%rbp), %rcx        # 8-byte Reload
	movq	-3944(%rbp), %rdx       # 8-byte Reload
	vmovss	4(%rcx,%rdx,8), %xmm0
	.loc	1 65 0                  # feature_extraction.c:65:0
	cvtss2sd	%xmm0, %xmm1
	movq	-3608(%rbp), %rdi       # 8-byte Reload
	movq	-3640(%rbp), %rsi       # 8-byte Reload
	vmovss	%xmm0, -3972(%rbp)      # 4-byte Spill
	vmovaps	%xmm1, %xmm0
	movq	-3864(%rbp), %rdx       # 8-byte Reload
	movq	-3688(%rbp), %rcx       # 8-byte Reload
	movq	-3840(%rbp), %r8        # 8-byte Reload
	movq	-3872(%rbp), %r9        # 8-byte Reload
	callq	trace_logger_log_double
	subq	$16, %rsp
	movq	-3920(%rbp), %rdi       # 8-byte Reload
	movq	-3888(%rbp), %rsi       # 8-byte Reload
	movq	-3896(%rbp), %rdx       # 8-byte Reload
	movq	-3664(%rbp), %rcx       # 8-byte Reload
	movq	-3696(%rbp), %r8        # 8-byte Reload
	movl	-3844(%rbp), %r9d       # 4-byte Reload
	movl	$1, (%rsp)
	callq	trace_logger_log0
	addq	$16, %rsp
	vmovss	-3956(%rbp), %xmm0      # 4-byte Reload
	cvtss2sd	%xmm0, %xmm0
	movq	-3880(%rbp), %rdi       # 8-byte Reload
	movq	-3640(%rbp), %rsi       # 8-byte Reload
	movq	-3864(%rbp), %rdx       # 8-byte Reload
	movq	-3704(%rbp), %rcx       # 8-byte Reload
	movq	-3840(%rbp), %r8        # 8-byte Reload
	movq	-3872(%rbp), %r9        # 8-byte Reload
	callq	trace_logger_log_double
	vmovss	-3956(%rbp), %xmm0      # 4-byte Reload
	cvtss2sd	%xmm0, %xmm0
	movq	-3864(%rbp), %rdi       # 8-byte Reload
	movq	-3640(%rbp), %rsi       # 8-byte Reload
	movq	-3864(%rbp), %rdx       # 8-byte Reload
	movq	-3704(%rbp), %rcx       # 8-byte Reload
	movq	-3840(%rbp), %r8        # 8-byte Reload
	movq	-3872(%rbp), %r9        # 8-byte Reload
	callq	trace_logger_log_double
	vmovss	-3956(%rbp), %xmm0      # 4-byte Reload
	vmulss	%xmm0, %xmm0, %xmm1
	cvtss2sd	%xmm1, %xmm0
	movq	-3608(%rbp), %rdi       # 8-byte Reload
	movq	-3640(%rbp), %rsi       # 8-byte Reload
	movq	-3864(%rbp), %rdx       # 8-byte Reload
	movq	-3664(%rbp), %rcx       # 8-byte Reload
	movq	-3840(%rbp), %r8        # 8-byte Reload
	movq	-3872(%rbp), %r9        # 8-byte Reload
	vmovss	%xmm1, -3976(%rbp)      # 4-byte Spill
	callq	trace_logger_log_double
	subq	$16, %rsp
	movq	-3920(%rbp), %rdi       # 8-byte Reload
	movq	-3888(%rbp), %rsi       # 8-byte Reload
	movq	-3896(%rbp), %rdx       # 8-byte Reload
	movq	-3672(%rbp), %rcx       # 8-byte Reload
	movq	-3696(%rbp), %r8        # 8-byte Reload
	movl	-3844(%rbp), %r9d       # 4-byte Reload
	movl	$1, (%rsp)
	callq	trace_logger_log0
	addq	$16, %rsp
	vmovss	-3972(%rbp), %xmm0      # 4-byte Reload
	cvtss2sd	%xmm0, %xmm0
	movq	-3880(%rbp), %rdi       # 8-byte Reload
	movq	-3640(%rbp), %rsi       # 8-byte Reload
	movq	-3864(%rbp), %rdx       # 8-byte Reload
	movq	-3688(%rbp), %rcx       # 8-byte Reload
	movq	-3840(%rbp), %r8        # 8-byte Reload
	movq	-3872(%rbp), %r9        # 8-byte Reload
	callq	trace_logger_log_double
	vmovss	-3972(%rbp), %xmm0      # 4-byte Reload
	cvtss2sd	%xmm0, %xmm0
	movq	-3864(%rbp), %rdi       # 8-byte Reload
	movq	-3640(%rbp), %rsi       # 8-byte Reload
	movq	-3864(%rbp), %rdx       # 8-byte Reload
	movq	-3688(%rbp), %rcx       # 8-byte Reload
	movq	-3840(%rbp), %r8        # 8-byte Reload
	movq	-3872(%rbp), %r9        # 8-byte Reload
	callq	trace_logger_log_double
	vmovss	-3972(%rbp), %xmm0      # 4-byte Reload
	vmulss	%xmm0, %xmm0, %xmm1
	cvtss2sd	%xmm1, %xmm0
	movq	-3608(%rbp), %rdi       # 8-byte Reload
	movq	-3640(%rbp), %rsi       # 8-byte Reload
	movq	-3864(%rbp), %rdx       # 8-byte Reload
	movq	-3672(%rbp), %rcx       # 8-byte Reload
	movq	-3840(%rbp), %r8        # 8-byte Reload
	movq	-3872(%rbp), %r9        # 8-byte Reload
	vmovss	%xmm1, -3980(%rbp)      # 4-byte Spill
	callq	trace_logger_log_double
	subq	$16, %rsp
	movq	-3920(%rbp), %rdi       # 8-byte Reload
	movq	-3888(%rbp), %rsi       # 8-byte Reload
	movq	-3896(%rbp), %rdx       # 8-byte Reload
	movq	-3648(%rbp), %rcx       # 8-byte Reload
	movq	-3680(%rbp), %r8        # 8-byte Reload
	movl	-3844(%rbp), %r9d       # 4-byte Reload
	movl	$1, (%rsp)
	callq	trace_logger_log0
	addq	$16, %rsp
	vmovss	-3980(%rbp), %xmm0      # 4-byte Reload
	cvtss2sd	%xmm0, %xmm0
	movq	-3880(%rbp), %rdi       # 8-byte Reload
	movq	-3640(%rbp), %rsi       # 8-byte Reload
	movq	-3864(%rbp), %rdx       # 8-byte Reload
	movq	-3672(%rbp), %rcx       # 8-byte Reload
	movq	-3840(%rbp), %r8        # 8-byte Reload
	movq	-3872(%rbp), %r9        # 8-byte Reload
	callq	trace_logger_log_double
	vmovss	-3976(%rbp), %xmm0      # 4-byte Reload
	cvtss2sd	%xmm0, %xmm0
	movq	-3864(%rbp), %rdi       # 8-byte Reload
	movq	-3640(%rbp), %rsi       # 8-byte Reload
	movq	-3864(%rbp), %rdx       # 8-byte Reload
	movq	-3664(%rbp), %rcx       # 8-byte Reload
	movq	-3840(%rbp), %r8        # 8-byte Reload
	movq	-3872(%rbp), %r9        # 8-byte Reload
	callq	trace_logger_log_double
	vmovss	-3976(%rbp), %xmm0      # 4-byte Reload
	vmovss	-3980(%rbp), %xmm1      # 4-byte Reload
	vaddss	%xmm1, %xmm0, %xmm2
	cvtss2sd	%xmm2, %xmm0
	movq	-3608(%rbp), %rdi       # 8-byte Reload
	movq	-3640(%rbp), %rsi       # 8-byte Reload
	movq	-3864(%rbp), %rdx       # 8-byte Reload
	movq	-3648(%rbp), %rcx       # 8-byte Reload
	movq	-3840(%rbp), %r8        # 8-byte Reload
	movq	-3872(%rbp), %r9        # 8-byte Reload
	vmovss	%xmm2, -3984(%rbp)      # 4-byte Spill
	callq	trace_logger_log_double
	subq	$16, %rsp
	movq	-3920(%rbp), %rdi       # 8-byte Reload
	movq	-3888(%rbp), %rsi       # 8-byte Reload
	movq	-3896(%rbp), %rdx       # 8-byte Reload
	movq	-3616(%rbp), %rcx       # 8-byte Reload
	movq	-3656(%rbp), %r8        # 8-byte Reload
	movl	-3844(%rbp), %r9d       # 4-byte Reload
	movl	$1, (%rsp)
	callq	trace_logger_log0
	addq	$16, %rsp
	vmovss	-3984(%rbp), %xmm0      # 4-byte Reload
	cvtss2sd	%xmm0, %xmm0
	movq	-3864(%rbp), %rdi       # 8-byte Reload
	movq	-3640(%rbp), %rsi       # 8-byte Reload
	movq	-3864(%rbp), %rdx       # 8-byte Reload
	movq	-3648(%rbp), %rcx       # 8-byte Reload
	movq	-3840(%rbp), %r8        # 8-byte Reload
	movq	-3872(%rbp), %r9        # 8-byte Reload
	callq	trace_logger_log_double
	vmovss	-3984(%rbp), %xmm0      # 4-byte Reload
	cvtss2sd	%xmm0, %xmm1
	movq	-3608(%rbp), %rdi       # 8-byte Reload
	movq	-3856(%rbp), %rsi       # 8-byte Reload
	vmovaps	%xmm1, %xmm0
	movq	-3864(%rbp), %rdx       # 8-byte Reload
	movq	-3616(%rbp), %rcx       # 8-byte Reload
	movq	-3840(%rbp), %r8        # 8-byte Reload
	movq	-3872(%rbp), %r9        # 8-byte Reload
	vmovsd	%xmm1, -3992(%rbp)      # 8-byte Spill
	callq	trace_logger_log_double
	subq	$16, %rsp
	movq	-3920(%rbp), %rdi       # 8-byte Reload
	movq	-3888(%rbp), %rsi       # 8-byte Reload
	movq	-3896(%rbp), %rdx       # 8-byte Reload
	movq	-3592(%rbp), %rcx       # 8-byte Reload
	movq	-3912(%rbp), %r8        # 8-byte Reload
	movl	-3844(%rbp), %r9d       # 4-byte Reload
	movl	$1, (%rsp)
	callq	trace_logger_log0
	addq	$16, %rsp
	subq	$16, %rsp
	movq	-3880(%rbp), %rdi       # 8-byte Reload
	movq	-3856(%rbp), %rsi       # 8-byte Reload
	movq	-3624(%rbp), %rdx       # 8-byte Reload
	movq	-3864(%rbp), %rcx       # 8-byte Reload
	movq	-3632(%rbp), %r8        # 8-byte Reload
	movq	-3840(%rbp), %r9        # 8-byte Reload
	movq	-3872(%rbp), %r10       # 8-byte Reload
	movq	%r10, (%rsp)
	callq	trace_logger_log_ptr
	addq	$16, %rsp
	movq	-3864(%rbp), %rdi       # 8-byte Reload
	movq	-3856(%rbp), %rsi       # 8-byte Reload
	vmovsd	-3992(%rbp), %xmm0      # 8-byte Reload
	movq	-3864(%rbp), %rdx       # 8-byte Reload
	movq	-3616(%rbp), %rcx       # 8-byte Reload
	movq	-3840(%rbp), %r8        # 8-byte Reload
	movq	-3872(%rbp), %r9        # 8-byte Reload
	callq	trace_logger_log_double
	vmovsd	-3992(%rbp), %xmm0      # 8-byte Reload
	callq	sqrt
	movq	-3608(%rbp), %rdi       # 8-byte Reload
	movq	-3856(%rbp), %rsi       # 8-byte Reload
	vmovsd	%xmm0, -4000(%rbp)      # 8-byte Spill
	movq	-3864(%rbp), %rdx       # 8-byte Reload
	movq	-3592(%rbp), %rcx       # 8-byte Reload
	movq	-3840(%rbp), %r8        # 8-byte Reload
	movq	-3872(%rbp), %r9        # 8-byte Reload
	callq	trace_logger_log_double
	subq	$16, %rsp
	movq	-3920(%rbp), %rdi       # 8-byte Reload
	movq	-3888(%rbp), %rsi       # 8-byte Reload
	movq	-3896(%rbp), %rdx       # 8-byte Reload
	movq	-3904(%rbp), %rcx       # 8-byte Reload
	movq	-3912(%rbp), %r8        # 8-byte Reload
	movl	-3844(%rbp), %r9d       # 4-byte Reload
	movl	$1, (%rsp)
	callq	trace_logger_log0
	addq	$16, %rsp
	subq	$16, %rsp
	movq	-3880(%rbp), %rdi       # 8-byte Reload
	movq	-3856(%rbp), %rsi       # 8-byte Reload
	movq	-3936(%rbp), %rdx       # 8-byte Reload
	movq	-3864(%rbp), %rcx       # 8-byte Reload
	movq	-3928(%rbp), %r8        # 8-byte Reload
	movq	-3840(%rbp), %r9        # 8-byte Reload
	movq	-3872(%rbp), %r10       # 8-byte Reload
	movq	%r10, (%rsp)
	callq	trace_logger_log_ptr
	addq	$16, %rsp
	movq	-3864(%rbp), %rdi       # 8-byte Reload
	movq	-3856(%rbp), %rsi       # 8-byte Reload
	vmovsd	-4000(%rbp), %xmm0      # 8-byte Reload
	movq	-3864(%rbp), %rdx       # 8-byte Reload
	movq	-3592(%rbp), %rcx       # 8-byte Reload
	movq	-3840(%rbp), %r8        # 8-byte Reload
	movq	-3872(%rbp), %r9        # 8-byte Reload
	callq	trace_logger_log_double
	vmovsd	-4000(%rbp), %xmm0      # 8-byte Reload
	callq	log10
	movabsq	$1, %rcx
	leaq	.L.str151, %rdx
	movabsq	$0, %rsi
	leaq	.L.str8, %rdi
	movabsq	$2, %r8
	leaq	.L.str131, %r9
	movabsq	$3, %r10
	leaq	.L.str123, %r11
	movabsq	$61, %rbx
	leaq	.L.str50, %r14
	leaq	.L.str152, %r15
	movl	$1, %eax
	movabsq	$19134, %r12            # imm = 0x4ABE
	movabsq	$64, %r13
	movq	%rcx, -4008(%rbp)       # 8-byte Spill
	leaq	.L.str133, %rcx
	movq	%rcx, -4016(%rbp)       # 8-byte Spill
	movabsq	$47, %rcx
	movq	%rcx, -4024(%rbp)       # 8-byte Spill
	leaq	.L.str7, %rcx
	movq	%rcx, -4032(%rbp)       # 8-byte Spill
	movabsq	$46, %rcx
	movq	%rcx, -4040(%rbp)       # 8-byte Spill
	leaq	.L.str132, %rcx
	movq	%rcx, -4048(%rbp)       # 8-byte Spill
	movabsq	$8, %rcx
	movq	%rcx, -4056(%rbp)       # 8-byte Spill
	leaq	.L.str145, %rcx
	movq	%rcx, -4064(%rbp)       # 8-byte Spill
	leaq	.L.str148, %rcx
	movq	%rcx, -4072(%rbp)       # 8-byte Spill
	movabsq	$65, %rcx
	movq	%rcx, -4080(%rbp)       # 8-byte Spill
	leaq	.L.str150, %rcx
	movq	%rcx, -4088(%rbp)       # 8-byte Spill
	movabsq	$28, %rcx
	movq	%rcx, -4096(%rbp)       # 8-byte Spill
	leaq	.L.str149, %rcx
	movq	%rcx, -4104(%rbp)       # 8-byte Spill
	leaq	.L.str147, %rcx
	movq	%rcx, -4112(%rbp)       # 8-byte Spill
	movabsq	$29, %rcx
	movq	%rcx, -4120(%rbp)       # 8-byte Spill
	leaq	.L.str128, %rcx
	movq	%rdi, -4128(%rbp)       # 8-byte Spill
	movq	%r12, %rdi
	movq	%rsi, -4136(%rbp)       # 8-byte Spill
	movq	%r13, %rsi
	vmovsd	%xmm0, -4144(%rbp)      # 8-byte Spill
	movq	%rcx, -4152(%rbp)       # 8-byte Spill
	movq	-4008(%rbp), %rcx       # 8-byte Reload
	movq	%rdx, -4160(%rbp)       # 8-byte Spill
	movq	%rcx, %rdx
	movq	-4064(%rbp), %rcx       # 8-byte Reload
	movq	%r8, -4168(%rbp)        # 8-byte Spill
	movq	-4136(%rbp), %r8        # 8-byte Reload
	movq	%r9, -4176(%rbp)        # 8-byte Spill
	movq	-4128(%rbp), %r9        # 8-byte Reload
	movl	%eax, -4180(%rbp)       # 4-byte Spill
	movq	%r14, -4192(%rbp)       # 8-byte Spill
	movq	%r15, -4200(%rbp)       # 8-byte Spill
	movq	%r12, -4208(%rbp)       # 8-byte Spill
	movq	%r13, -4216(%rbp)       # 8-byte Spill
	movq	%rbx, -4224(%rbp)       # 8-byte Spill
	movq	%r11, -4232(%rbp)       # 8-byte Spill
	movq	%r10, -4240(%rbp)       # 8-byte Spill
	callq	trace_logger_log_double
	subq	$16, %rsp
	movq	-4080(%rbp), %rdi       # 8-byte Reload
	movq	-4192(%rbp), %rsi       # 8-byte Reload
	movq	-4176(%rbp), %rdx       # 8-byte Reload
	movq	-4112(%rbp), %rcx       # 8-byte Reload
	movq	-4056(%rbp), %r8        # 8-byte Reload
	movl	-4180(%rbp), %r9d       # 4-byte Reload
	movl	$1, (%rsp)
	callq	trace_logger_log0
	addq	$16, %rsp
	subq	$16, %rsp
	movq	-4168(%rbp), %rdi       # 8-byte Reload
	movq	-4216(%rbp), %rsi       # 8-byte Reload
	movq	-3568(%rbp), %rdx       # 8-byte Reload
	movq	-4008(%rbp), %rcx       # 8-byte Reload
	movq	-4152(%rbp), %r8        # 8-byte Reload
	movq	-4136(%rbp), %r9        # 8-byte Reload
	movq	-4128(%rbp), %r10       # 8-byte Reload
	movq	%r10, (%rsp)
	callq	trace_logger_log_int
	addq	$16, %rsp
	subq	$16, %rsp
	movq	-4008(%rbp), %rdi       # 8-byte Reload
	movq	-4216(%rbp), %rsi       # 8-byte Reload
	movq	-3600(%rbp), %rdx       # 8-byte Reload
	movq	-4008(%rbp), %rcx       # 8-byte Reload
	movq	-4048(%rbp), %r8        # 8-byte Reload
	movq	-4136(%rbp), %r9        # 8-byte Reload
	movq	-4128(%rbp), %r10       # 8-byte Reload
	movq	%r10, (%rsp)
	callq	trace_logger_log_int
	addq	$16, %rsp
	movq	-3600(%rbp), %rcx       # 8-byte Reload
	movq	-3568(%rbp), %rdx       # 8-byte Reload
	addq	%rdx, %rcx
	subq	$16, %rsp
	movq	-4208(%rbp), %rdi       # 8-byte Reload
	movq	-4216(%rbp), %rsi       # 8-byte Reload
	movq	%rcx, %rdx
	movq	-4008(%rbp), %r8        # 8-byte Reload
	movq	%rcx, -4248(%rbp)       # 8-byte Spill
	movq	%r8, %rcx
	movq	-4112(%rbp), %r8        # 8-byte Reload
	movq	-4136(%rbp), %r9        # 8-byte Reload
	movq	-4128(%rbp), %r10       # 8-byte Reload
	movq	%r10, (%rsp)
	callq	trace_logger_log_int
	addq	$16, %rsp
	subq	$16, %rsp
	movq	-4080(%rbp), %rdi       # 8-byte Reload
	movq	-4192(%rbp), %rsi       # 8-byte Reload
	movq	-4176(%rbp), %rdx       # 8-byte Reload
	movq	-4072(%rbp), %rcx       # 8-byte Reload
	movq	-4120(%rbp), %r8        # 8-byte Reload
	movl	-4180(%rbp), %r9d       # 4-byte Reload
	movl	$1, (%rsp)
	callq	trace_logger_log0
	addq	$16, %rsp
	subq	$16, %rsp
	movq	-4168(%rbp), %rdi       # 8-byte Reload
	movq	-4216(%rbp), %rsi       # 8-byte Reload
	movq	-4248(%rbp), %rdx       # 8-byte Reload
	movq	-4008(%rbp), %rcx       # 8-byte Reload
	movq	-4112(%rbp), %r8        # 8-byte Reload
	movq	-4136(%rbp), %r9        # 8-byte Reload
	movq	-4128(%rbp), %r10       # 8-byte Reload
	movq	%r10, (%rsp)
	callq	trace_logger_log_int
	addq	$16, %rsp
	subq	$16, %rsp
	movq	-4008(%rbp), %rdi       # 8-byte Reload
	movq	-4216(%rbp), %rsi       # 8-byte Reload
	movq	-3088(%rbp), %rdx       # 8-byte Reload
	movq	-4008(%rbp), %rcx       # 8-byte Reload
	movq	-4104(%rbp), %r8        # 8-byte Reload
	movq	-4136(%rbp), %r9        # 8-byte Reload
	movq	-4128(%rbp), %r10       # 8-byte Reload
	movq	%r10, (%rsp)
	callq	trace_logger_log_ptr
	addq	$16, %rsp
	movq	-4248(%rbp), %rcx       # 8-byte Reload
	shlq	$3, %rcx
	movq	-3088(%rbp), %rdx       # 8-byte Reload
	addq	%rcx, %rdx
	subq	$16, %rsp
	movq	-4208(%rbp), %rdi       # 8-byte Reload
	movq	-4216(%rbp), %rsi       # 8-byte Reload
	movq	%rdx, -4256(%rbp)       # 8-byte Spill
	movq	-4008(%rbp), %rcx       # 8-byte Reload
	movq	-4072(%rbp), %r8        # 8-byte Reload
	movq	-4136(%rbp), %r9        # 8-byte Reload
	movq	-4128(%rbp), %r10       # 8-byte Reload
	movq	%r10, (%rsp)
	callq	trace_logger_log_ptr
	addq	$16, %rsp
	subq	$16, %rsp
	movq	-4080(%rbp), %rdi       # 8-byte Reload
	movq	-4192(%rbp), %rsi       # 8-byte Reload
	movq	-4176(%rbp), %rdx       # 8-byte Reload
	movq	-4088(%rbp), %rcx       # 8-byte Reload
	movq	-4096(%rbp), %r8        # 8-byte Reload
	movl	-4180(%rbp), %r9d       # 4-byte Reload
	movl	$1, (%rsp)
	callq	trace_logger_log0
	addq	$16, %rsp
	subq	$16, %rsp
	movq	-4168(%rbp), %rdi       # 8-byte Reload
	movq	-4216(%rbp), %rsi       # 8-byte Reload
	movq	-4256(%rbp), %rdx       # 8-byte Reload
	movq	-4008(%rbp), %rcx       # 8-byte Reload
	movq	-4072(%rbp), %r8        # 8-byte Reload
	movq	-4136(%rbp), %r9        # 8-byte Reload
	movq	-4128(%rbp), %r10       # 8-byte Reload
	movq	%r10, (%rsp)
	callq	trace_logger_log_ptr
	addq	$16, %rsp
	movq	-4008(%rbp), %rdi       # 8-byte Reload
	movq	-4216(%rbp), %rsi       # 8-byte Reload
	vmovsd	-4144(%rbp), %xmm0      # 8-byte Reload
	movq	-4008(%rbp), %rdx       # 8-byte Reload
	movq	-4064(%rbp), %rcx       # 8-byte Reload
	movq	-4136(%rbp), %r8        # 8-byte Reload
	movq	-4128(%rbp), %r9        # 8-byte Reload
	callq	trace_logger_log_double
	movq	-3088(%rbp), %rcx       # 8-byte Reload
	movq	-4248(%rbp), %rdx       # 8-byte Reload
	vmovsd	-4144(%rbp), %xmm0      # 8-byte Reload
	vmovsd	%xmm0, (%rcx,%rdx,8)
.Ltmp74:
	.loc	1 61 0                  # feature_extraction.c:61:0
	subq	$16, %rsp
	movq	-4224(%rbp), %rdi       # 8-byte Reload
	movq	-4192(%rbp), %rsi       # 8-byte Reload
	movq	-4176(%rbp), %rdx       # 8-byte Reload
	movq	-4016(%rbp), %rcx       # 8-byte Reload
	movq	-4056(%rbp), %r8        # 8-byte Reload
	movl	-4180(%rbp), %r9d       # 4-byte Reload
	movl	$1, (%rsp)
	callq	trace_logger_log0
	addq	$16, %rsp
	subq	$16, %rsp
	movq	-4168(%rbp), %rdi       # 8-byte Reload
	movq	-4216(%rbp), %rsi       # 8-byte Reload
	movq	-4008(%rbp), %rdx       # 8-byte Reload
	movq	-4136(%rbp), %rcx       # 8-byte Reload
	movq	-4032(%rbp), %r8        # 8-byte Reload
	movq	-4136(%rbp), %r9        # 8-byte Reload
	movq	-4128(%rbp), %r10       # 8-byte Reload
	movq	%r10, (%rsp)
	callq	trace_logger_log_int
	addq	$16, %rsp
	subq	$16, %rsp
	movq	-4008(%rbp), %rdi       # 8-byte Reload
	movq	-4216(%rbp), %rsi       # 8-byte Reload
	movq	-3600(%rbp), %rdx       # 8-byte Reload
	movq	-4008(%rbp), %rcx       # 8-byte Reload
	movq	-4048(%rbp), %r8        # 8-byte Reload
	movq	-4136(%rbp), %r9        # 8-byte Reload
	movq	-4128(%rbp), %r10       # 8-byte Reload
	movq	%r10, (%rsp)
	callq	trace_logger_log_int
	addq	$16, %rsp
	movq	-3600(%rbp), %rcx       # 8-byte Reload
	addq	$1, %rcx
	subq	$16, %rsp
	movq	-4208(%rbp), %rdi       # 8-byte Reload
	movq	-4216(%rbp), %rsi       # 8-byte Reload
	movq	%rcx, %rdx
	movq	-4008(%rbp), %r8        # 8-byte Reload
	movq	%rcx, -4264(%rbp)       # 8-byte Spill
	movq	%r8, %rcx
	movq	-4016(%rbp), %r8        # 8-byte Reload
	movq	-4136(%rbp), %r9        # 8-byte Reload
	movq	-4128(%rbp), %r10       # 8-byte Reload
	movq	%r10, (%rsp)
	callq	trace_logger_log_int
	addq	$16, %rsp
	subq	$16, %rsp
	movq	-4224(%rbp), %rdi       # 8-byte Reload
	movq	-4192(%rbp), %rsi       # 8-byte Reload
	movq	-4176(%rbp), %rdx       # 8-byte Reload
	movq	-4160(%rbp), %rcx       # 8-byte Reload
	movq	-4040(%rbp), %r8        # 8-byte Reload
	movl	-4180(%rbp), %r9d       # 4-byte Reload
	movl	$1, (%rsp)
	callq	trace_logger_log0
	addq	$16, %rsp
	subq	$16, %rsp
	movq	-4168(%rbp), %rdi       # 8-byte Reload
	movq	-4216(%rbp), %rsi       # 8-byte Reload
	movq	-4024(%rbp), %rdx       # 8-byte Reload
	movq	-4136(%rbp), %rcx       # 8-byte Reload
	movq	-4032(%rbp), %r8        # 8-byte Reload
	movq	-4136(%rbp), %r9        # 8-byte Reload
	movq	-4128(%rbp), %r10       # 8-byte Reload
	movq	%r10, (%rsp)
	callq	trace_logger_log_int
	addq	$16, %rsp
	subq	$16, %rsp
	movq	-4008(%rbp), %rdi       # 8-byte Reload
	movq	-4216(%rbp), %rsi       # 8-byte Reload
	movq	-4264(%rbp), %rdx       # 8-byte Reload
	movq	-4008(%rbp), %rcx       # 8-byte Reload
	movq	-4016(%rbp), %r8        # 8-byte Reload
	movq	-4136(%rbp), %r9        # 8-byte Reload
	movq	-4128(%rbp), %r10       # 8-byte Reload
	movq	%r10, (%rsp)
	callq	trace_logger_log_int
	addq	$16, %rsp
	movq	-4264(%rbp), %rcx       # 8-byte Reload
	cmpq	$47, %rcx
	sete	%al
	movb	%al, %cl
	andb	$1, %cl
	movzbl	%cl, %ecx
	movl	%ecx, %edx
	subq	$16, %rsp
	movq	-4208(%rbp), %rdi       # 8-byte Reload
	movq	-4008(%rbp), %rsi       # 8-byte Reload
	movq	-4008(%rbp), %rcx       # 8-byte Reload
	movq	-4160(%rbp), %r8        # 8-byte Reload
	movq	-4136(%rbp), %r9        # 8-byte Reload
	movq	-4128(%rbp), %r10       # 8-byte Reload
	movq	%r10, (%rsp)
	movb	%al, -4265(%rbp)        # 1-byte Spill
	callq	trace_logger_log_int
	addq	$16, %rsp
	subq	$16, %rsp
	movq	-4224(%rbp), %rdi       # 8-byte Reload
	movq	-4192(%rbp), %rsi       # 8-byte Reload
	movq	-4176(%rbp), %rdx       # 8-byte Reload
	movq	-4200(%rbp), %rcx       # 8-byte Reload
	movq	-4168(%rbp), %r8        # 8-byte Reload
	movl	-4180(%rbp), %r9d       # 4-byte Reload
	movl	$1, (%rsp)
	callq	trace_logger_log0
	addq	$16, %rsp
	subq	$16, %rsp
	movq	-4240(%rbp), %rdi       # 8-byte Reload
	movq	-4136(%rbp), %rsi       # 8-byte Reload
	movq	-4136(%rbp), %rdx       # 8-byte Reload
	movq	-4008(%rbp), %rcx       # 8-byte Reload
	movq	-4232(%rbp), %r8        # 8-byte Reload
	movq	-4136(%rbp), %r9        # 8-byte Reload
	movq	-4128(%rbp), %r10       # 8-byte Reload
	movq	%r10, (%rsp)
	callq	trace_logger_log_int
	addq	$16, %rsp
	subq	$16, %rsp
	movq	-4168(%rbp), %rdi       # 8-byte Reload
	movq	-4136(%rbp), %rsi       # 8-byte Reload
	movq	-4136(%rbp), %rdx       # 8-byte Reload
	movq	-4008(%rbp), %rcx       # 8-byte Reload
	movq	-4176(%rbp), %r8        # 8-byte Reload
	movq	-4136(%rbp), %r9        # 8-byte Reload
	movq	-4128(%rbp), %r10       # 8-byte Reload
	movq	%r10, (%rsp)
	callq	trace_logger_log_int
	addq	$16, %rsp
	movb	-4265(%rbp), %al        # 1-byte Reload
	andb	$1, %al
	movzbl	%al, %eax
	movl	%eax, %edx
	subq	$16, %rsp
	movq	-4008(%rbp), %rdi       # 8-byte Reload
	movq	-4008(%rbp), %rsi       # 8-byte Reload
	movq	-4008(%rbp), %rcx       # 8-byte Reload
	movq	-4160(%rbp), %r8        # 8-byte Reload
	movq	-4136(%rbp), %r9        # 8-byte Reload
	movq	-4128(%rbp), %r10       # 8-byte Reload
	movq	%r10, (%rsp)
	callq	trace_logger_log_int
	addq	$16, %rsp
	movb	-4265(%rbp), %al        # 1-byte Reload
	testb	$1, %al
	movq	-4264(%rbp), %rcx       # 8-byte Reload
	movq	%rcx, -3584(%rbp)       # 8-byte Spill
	jne	.LBB1_13
	jmp	.LBB1_12
.Ltmp75:
.LBB1_13:                               #   in Loop: Header=BB1_11 Depth=1
	movabsq	$1, %rax
	leaq	.L.str154, %rcx
	movabsq	$0, %rdx
	leaq	.L.str8, %rsi
	movabsq	$2, %rdi
	leaq	.L.str116, %r8
	movabsq	$3, %r9
	leaq	.L.str156, %r10
	movabsq	$59, %r11
	leaq	.L.str50, %rbx
	leaq	.L.str123, %r14
	leaq	.L.str155, %r15
	movl	$1, %r12d
	movabsq	$19134, %r13            # imm = 0x4ABE
	movq	%rax, -4280(%rbp)       # 8-byte Spill
	movabsq	$32, %rax
	movq	%rax, -4288(%rbp)       # 8-byte Spill
	leaq	.L.str153, %rax
	movq	%rax, -4296(%rbp)       # 8-byte Spill
	leaq	.L.str9, %rax
	movq	%rax, -4304(%rbp)       # 8-byte Spill
	movabsq	$46, %rax
	movq	%rax, -4312(%rbp)       # 8-byte Spill
	movabsq	$64, %rax
	movq	%rax, -4320(%rbp)       # 8-byte Spill
	leaq	.L.str122, %rax
	movq	%rax, -4328(%rbp)       # 8-byte Spill
	movabsq	$33, %rax
	movq	%rax, -4336(%rbp)       # 8-byte Spill
	leaq	.L.str121, %rax
	movq	%rax, -4344(%rbp)       # 8-byte Spill
	leaq	.L.str7, %rax
	movq	%rax, -4352(%rbp)       # 8-byte Spill
	movabsq	$8, %rax
	.loc	1 59 0                  # feature_extraction.c:59:0
	subq	$16, %rsp
	movq	%rdi, -4360(%rbp)       # 8-byte Spill
	movq	%r11, %rdi
	movq	%rsi, -4368(%rbp)       # 8-byte Spill
	movq	%rbx, %rsi
	movq	%rdx, -4376(%rbp)       # 8-byte Spill
	movq	%r14, %rdx
	movq	%rax, -4384(%rbp)       # 8-byte Spill
	movq	-4328(%rbp), %rax       # 8-byte Reload
	movq	%rcx, -4392(%rbp)       # 8-byte Spill
	movq	%rax, %rcx
	movq	-4384(%rbp), %rax       # 8-byte Reload
	movq	%r8, -4400(%rbp)        # 8-byte Spill
	movq	%rax, %r8
	movq	%r9, -4408(%rbp)        # 8-byte Spill
	movl	%r12d, %r9d
	movl	$1, (%rsp)
	movq	%r14, -4416(%rbp)       # 8-byte Spill
	movq	%r15, -4424(%rbp)       # 8-byte Spill
	movl	%r12d, -4428(%rbp)      # 4-byte Spill
	movq	%r13, -4440(%rbp)       # 8-byte Spill
	movq	%rbx, -4448(%rbp)       # 8-byte Spill
	movq	%r11, -4456(%rbp)       # 8-byte Spill
	movq	%r10, -4464(%rbp)       # 8-byte Spill
	callq	trace_logger_log0
	addq	$16, %rsp
	subq	$16, %rsp
	movq	-4360(%rbp), %rdi       # 8-byte Reload
	movq	-4320(%rbp), %rsi       # 8-byte Reload
	movq	-4280(%rbp), %rdx       # 8-byte Reload
	movq	-4376(%rbp), %rcx       # 8-byte Reload
	movq	-4352(%rbp), %r8        # 8-byte Reload
	movq	-4376(%rbp), %r9        # 8-byte Reload
	movq	-4368(%rbp), %rax       # 8-byte Reload
	movq	%rax, (%rsp)
	callq	trace_logger_log_int
	addq	$16, %rsp
	subq	$16, %rsp
	movq	-4280(%rbp), %rdi       # 8-byte Reload
	movq	-4320(%rbp), %rsi       # 8-byte Reload
	movq	-3264(%rbp), %rdx       # 8-byte Reload
	movq	-4280(%rbp), %rcx       # 8-byte Reload
	movq	-4344(%rbp), %r8        # 8-byte Reload
	movq	-4376(%rbp), %r9        # 8-byte Reload
	movq	-4368(%rbp), %rax       # 8-byte Reload
	movq	%rax, (%rsp)
	callq	trace_logger_log_int
	addq	$16, %rsp
	movq	-3264(%rbp), %rax       # 8-byte Reload
	addq	$1, %rax
	subq	$16, %rsp
	movq	-4440(%rbp), %rdi       # 8-byte Reload
	movq	-4320(%rbp), %rsi       # 8-byte Reload
	movq	%rax, %rdx
	movq	-4280(%rbp), %rcx       # 8-byte Reload
	movq	-4328(%rbp), %r8        # 8-byte Reload
	movq	-4376(%rbp), %r9        # 8-byte Reload
	movq	-4368(%rbp), %r10       # 8-byte Reload
	movq	%r10, (%rsp)
	movq	%rax, -4472(%rbp)       # 8-byte Spill
	callq	trace_logger_log_int
	addq	$16, %rsp
	subq	$16, %rsp
	movq	-4456(%rbp), %rdi       # 8-byte Reload
	movq	-4448(%rbp), %rsi       # 8-byte Reload
	movq	-4416(%rbp), %rdx       # 8-byte Reload
	movq	-4296(%rbp), %rcx       # 8-byte Reload
	movq	-4336(%rbp), %r8        # 8-byte Reload
	movl	-4428(%rbp), %r9d       # 4-byte Reload
	movl	$1, (%rsp)
	callq	trace_logger_log0
	addq	$16, %rsp
	subq	$16, %rsp
	movq	-4280(%rbp), %rdi       # 8-byte Reload
	movq	-4320(%rbp), %rsi       # 8-byte Reload
	movq	-4472(%rbp), %rdx       # 8-byte Reload
	movq	-4280(%rbp), %rcx       # 8-byte Reload
	movq	-4328(%rbp), %r8        # 8-byte Reload
	movq	-4376(%rbp), %r9        # 8-byte Reload
	movq	-4368(%rbp), %rax       # 8-byte Reload
	movq	%rax, (%rsp)
	callq	trace_logger_log_int
	addq	$16, %rsp
	movq	-4472(%rbp), %rax       # 8-byte Reload
	movl	%eax, %r12d
	movl	%r12d, %esi
	movl	%esi, %edx
	subq	$16, %rsp
	movq	-4440(%rbp), %rdi       # 8-byte Reload
	movq	-4288(%rbp), %rsi       # 8-byte Reload
	movq	-4280(%rbp), %rcx       # 8-byte Reload
	movq	-4296(%rbp), %r8        # 8-byte Reload
	movq	-4376(%rbp), %r9        # 8-byte Reload
	movq	-4368(%rbp), %r10       # 8-byte Reload
	movq	%r10, (%rsp)
	movl	%r12d, -4476(%rbp)      # 4-byte Spill
	callq	trace_logger_log_int
	addq	$16, %rsp
	subq	$16, %rsp
	movq	-4456(%rbp), %rdi       # 8-byte Reload
	movq	-4448(%rbp), %rsi       # 8-byte Reload
	movq	-4416(%rbp), %rdx       # 8-byte Reload
	movq	-4392(%rbp), %rcx       # 8-byte Reload
	movq	-4312(%rbp), %r8        # 8-byte Reload
	movl	-4428(%rbp), %r9d       # 4-byte Reload
	movl	$1, (%rsp)
	callq	trace_logger_log0
	addq	$16, %rsp
	movl	-76(%rbp), %r9d         # 4-byte Reload
	movl	%r9d, %r12d
	movl	%r12d, %edx
	subq	$16, %rsp
	movq	-4360(%rbp), %rdi       # 8-byte Reload
	movq	-4288(%rbp), %rsi       # 8-byte Reload
	movq	-4280(%rbp), %rcx       # 8-byte Reload
	movq	-4304(%rbp), %r8        # 8-byte Reload
	movq	-4376(%rbp), %r9        # 8-byte Reload
	movq	-4368(%rbp), %rax       # 8-byte Reload
	movq	%rax, (%rsp)
	callq	trace_logger_log_int
	addq	$16, %rsp
	movl	-4476(%rbp), %r12d      # 4-byte Reload
	movl	%r12d, %esi
	movl	%esi, %edx
	subq	$16, %rsp
	movq	-4280(%rbp), %rdi       # 8-byte Reload
	movq	-4288(%rbp), %rsi       # 8-byte Reload
	movq	-4280(%rbp), %rcx       # 8-byte Reload
	movq	-4296(%rbp), %r8        # 8-byte Reload
	movq	-4376(%rbp), %r9        # 8-byte Reload
	movq	-4368(%rbp), %rax       # 8-byte Reload
	movq	%rax, (%rsp)
	callq	trace_logger_log_int
	addq	$16, %rsp
	movl	-4476(%rbp), %r12d      # 4-byte Reload
	movl	-76(%rbp), %esi         # 4-byte Reload
	cmpl	%esi, %r12d
	sete	%al
	movb	%al, %cl
	andb	$1, %cl
	movzbl	%cl, %ecx
	movl	%ecx, %edx
	subq	$16, %rsp
	movq	-4440(%rbp), %rdi       # 8-byte Reload
	movq	-4280(%rbp), %rsi       # 8-byte Reload
	movq	-4280(%rbp), %rcx       # 8-byte Reload
	movq	-4392(%rbp), %r8        # 8-byte Reload
	movq	-4376(%rbp), %r9        # 8-byte Reload
	movq	-4368(%rbp), %r10       # 8-byte Reload
	movq	%r10, (%rsp)
	movb	%al, -4477(%rbp)        # 1-byte Spill
	callq	trace_logger_log_int
	addq	$16, %rsp
	subq	$16, %rsp
	movq	-4456(%rbp), %rdi       # 8-byte Reload
	movq	-4448(%rbp), %rsi       # 8-byte Reload
	movq	-4416(%rbp), %rdx       # 8-byte Reload
	movq	-4424(%rbp), %rcx       # 8-byte Reload
	movq	-4360(%rbp), %r8        # 8-byte Reload
	movl	-4428(%rbp), %r9d       # 4-byte Reload
	movl	$1, (%rsp)
	callq	trace_logger_log0
	addq	$16, %rsp
	subq	$16, %rsp
	movq	-4408(%rbp), %rdi       # 8-byte Reload
	movq	-4376(%rbp), %rsi       # 8-byte Reload
	movq	-4376(%rbp), %rdx       # 8-byte Reload
	movq	-4280(%rbp), %rcx       # 8-byte Reload
	movq	-4464(%rbp), %r8        # 8-byte Reload
	movq	-4376(%rbp), %r9        # 8-byte Reload
	movq	-4368(%rbp), %r10       # 8-byte Reload
	movq	%r10, (%rsp)
	callq	trace_logger_log_int
	addq	$16, %rsp
	subq	$16, %rsp
	movq	-4360(%rbp), %rdi       # 8-byte Reload
	movq	-4376(%rbp), %rsi       # 8-byte Reload
	movq	-4376(%rbp), %rdx       # 8-byte Reload
	movq	-4280(%rbp), %rcx       # 8-byte Reload
	movq	-4400(%rbp), %r8        # 8-byte Reload
	movq	-4376(%rbp), %r9        # 8-byte Reload
	movq	-4368(%rbp), %r10       # 8-byte Reload
	movq	%r10, (%rsp)
	callq	trace_logger_log_int
	addq	$16, %rsp
	movb	-4477(%rbp), %al        # 1-byte Reload
	andb	$1, %al
	movzbl	%al, %r12d
	movl	%r12d, %edx
	subq	$16, %rsp
	movq	-4280(%rbp), %rdi       # 8-byte Reload
	movq	-4280(%rbp), %rsi       # 8-byte Reload
	movq	-4280(%rbp), %rcx       # 8-byte Reload
	movq	-4392(%rbp), %r8        # 8-byte Reload
	movq	-4376(%rbp), %r9        # 8-byte Reload
	movq	-4368(%rbp), %r10       # 8-byte Reload
	movq	%r10, (%rsp)
	callq	trace_logger_log_int
	addq	$16, %rsp
	movb	-4477(%rbp), %al        # 1-byte Reload
	testb	$1, %al
	movq	-4472(%rbp), %rcx       # 8-byte Reload
	movq	%rcx, -3104(%rbp)       # 8-byte Spill
	jne	.LBB1_14
	jmp	.LBB1_11
.Ltmp76:
.LBB1_14:                               # %._crit_edge109
	movabsq	$0, %rax
	movabsq	$1, %rcx
	leaq	.L.str160, %rdx
	leaq	.L.str8, %rsi
	movabsq	$2, %rdi
	leaq	.L.str120, %r8
	movabsq	$3, %r9
	leaq	.L.str162, %r10
	movabsq	$71, %r11
	leaq	.L.str50, %rbx
	leaq	.L.str156, %r14
	leaq	.L.str161, %r15
	movl	$1, %r12d
	movabsq	$19134, %r13            # imm = 0x4ABE
	movq	%rax, -4488(%rbp)       # 8-byte Spill
	movabsq	$32, %rax
	movq	%rax, -4496(%rbp)       # 8-byte Spill
	leaq	.L.str9, %rax
